

Microchip MPLAB XC8 Assembler V2.45 build 20230818022343 
                                                                                               Mon Feb 12 19:08:41 2024

Microchip MPLAB XC8 C Compiler v2.45 (Free license) build 20230818022343 Og1 
     1                           	processor	18F4620
     2                           	fnconf	rparam,??,?,0
     3                           	pagewidth 120
     4                           	opt	flic
     5                           	psect	idataCOMRAM,global,class=CODE,delta=1,noexec
     6                           	psect	idataBANK0,global,class=CODE,delta=1,noexec
     7                           	psect	mediumconst,global,reloc=2,class=MEDIUMCONST,delta=1,noexec
     8                           	psect	cinit,global,reloc=2,class=CODE,delta=1
     9                           	psect	bssCOMRAM,global,class=COMRAM,space=1,delta=1,lowdata,noexec
    10                           	psect	dataCOMRAM,global,class=COMRAM,space=1,delta=1,lowdata,noexec
    11                           	psect	dataBANK0,global,class=BANK0,space=1,delta=1,lowdata,noexec
    12                           	psect	cstackCOMRAM,global,class=COMRAM,space=1,delta=1,lowdata,noexec
    13                           	psect	text0,global,reloc=2,class=CODE,delta=1
    14                           	psect	text1,global,reloc=2,class=CODE,delta=1
    15                           	psect	text2,global,reloc=2,class=CODE,delta=1
    16                           	psect	text3,global,reloc=2,class=CODE,delta=1
    17                           	psect	text4,global,reloc=2,class=CODE,delta=1
    18                           	psect	text5,global,reloc=2,class=CODE,delta=1
    19                           	psect	text6,global,reloc=2,class=CODE,delta=1
    20                           	psect	text7,global,reloc=2,class=CODE,delta=1
    21                           	psect	text8,global,reloc=2,class=CODE,delta=1
    22                           	psect	text9,global,reloc=2,class=CODE,delta=1
    23                           	psect	text10,global,reloc=2,class=CODE,delta=1
    24                           	psect	text11,global,reloc=2,class=CODE,delta=1
    25                           	psect	text12,global,reloc=2,class=CODE,delta=1
    26                           	psect	text13,global,reloc=2,class=CODE,delta=1
    27                           	psect	text14,global,reloc=2,class=CODE,delta=1
    28                           	psect	text15,global,reloc=2,class=CODE,delta=1
    29                           	psect	text16,global,reloc=2,class=CODE,delta=1
    30                           	psect	text17,global,reloc=2,class=CODE,delta=1
    31                           	psect	text18,global,reloc=2,class=CODE,delta=1
    32                           	psect	text19,global,reloc=2,class=CODE,delta=1
    33                           	psect	text20,global,reloc=2,class=CODE,delta=1
    34                           	psect	text21,global,reloc=2,class=CODE,delta=1
    35                           	psect	text22,global,reloc=2,class=CODE,delta=1
    36                           	psect	text23,global,reloc=2,class=CODE,delta=1
    37                           	psect	text24,global,reloc=2,class=CODE,delta=1
    38                           	psect	text25,global,reloc=2,class=CODE,delta=1
    39                           	psect	text26,global,reloc=2,class=CODE,delta=1
    40                           	psect	text27,global,reloc=2,class=CODE,delta=1
    41                           	psect	text28,global,reloc=2,class=CODE,delta=1
    42                           	psect	text29,global,reloc=2,class=CODE,delta=1
    43                           	psect	text30,global,reloc=2,class=CODE,delta=1
    44                           	psect	text31,global,reloc=2,class=CODE,delta=1
    45                           	psect	text32,global,reloc=2,class=CODE,delta=1
    46                           	psect	intcode,global,reloc=2,class=CODE,delta=1
    47                           	psect	intcode_body,global,reloc=2,class=CODE,delta=1
    48                           	psect	text34,global,reloc=2,class=CODE,delta=1
    49                           	psect	text35,global,reloc=2,class=CODE,delta=1
    50                           	psect	text36,global,reloc=2,class=CODE,delta=1
    51                           	psect	text37,global,reloc=2,class=CODE,delta=1
    52                           	psect	intsave_regs,global,class=BIGRAM,space=1,delta=1,noexec
    53                           	psect	rparam,global,class=COMRAM,space=1,delta=1,noexec
    54                           	psect	temp,global,ovrld,common,class=COMRAM,space=1,delta=1
    55                           	psect	config,global,abs,ovrld,class=CONFIG,space=4,delta=1,noexec
    56   000000                     
    57                           ; Generated 23/03/2023 GMT
    58                           ; 
    59                           ; Copyright © 2023, Microchip Technology Inc. and its subsidiaries ("Microchip")
    60                           ; All rights reserved.
    61                           ; 
    62                           ; This software is developed by Microchip Technology Inc. and its subsidiaries ("Microch
      +                          ip").
    63                           ; 
    64                           ; Redistribution and use in source and binary forms, with or without modification, are
    65                           ; permitted provided that the following conditions are met:
    66                           ; 
    67                           ;     1. Redistributions of source code must retain the above copyright notice, this lis
      +                          t of
    68                           ;        conditions and the following disclaimer.
    69                           ; 
    70                           ;     2. Redistributions in binary form must reproduce the above copyright notice, this 
      +                          list
    71                           ;        of conditions and the following disclaimer in the documentation and/or other
    72                           ;        materials provided with the distribution. Publication is not required when
    73                           ;        this file is used in an embedded application.
    74                           ; 
    75                           ;     3. Microchip's name may not be used to endorse or promote products derived from th
      +                          is
    76                           ;        software without specific prior written permission.
    77                           ; 
    78                           ; THIS SOFTWARE IS PROVIDED BY MICROCHIP "AS IS" AND ANY EXPRESS OR IMPLIED WARRANTIES,
    79                           ; INCLUDING, BUT NOT LIMITED TO, THE IMPLIED WARRANTIES OF MERCHANTABILITY AND FITNESS F
      +                          OR
    80                           ; PURPOSE ARE DISCLAIMED.  IN NO EVENT SHALL MICROCHIP BE LIABLE FOR ANY DIRECT, INDIREC
      +                          T,
    81                           ; INCIDENTAL, SPECIAL, EXEMPLARY, OR CONSEQUENTIAL DAMAGES (INCLUDING BUT NOT LIMITED TO
    82                           ; PROCUREMENT OF SUBSTITUTE GOODS OR SERVICES; LOSS OF USE, DATA OR PROFITS; OR BUSINESS
    83                           ; INTERRUPTION) HOWSOEVER CAUSED AND ON ANY THEORY OF LIABILITY, WHETHER IN CONTRACT, ST
      +                          RICT
    84                           ; LIABILITY, OR TORT (INCLUDING NEGLIGENCE OR OTHERWISE) ARISING IN ANY WAY OUT OF THE U
      +                          SE OF
    85                           ; THIS SOFTWARE, EVEN IF ADVISED OF THE POSSIBILITY OF SUCH DAMAGE.
    86                           ; 
    87                           ; 
    88                           ; Code-generator required, PIC18F4620 Definitions
    89                           ; 
    90                           ; SFR Addresses
    91   000000                     
    92                           	psect	idataCOMRAM
    93   001510                     __pidataCOMRAM:
    94                           	callstack 0
    95                           
    96                           ;initializer for _lat_register
    97   001510  89                 	db	137
    98   001511  0F                 	db	15
    99   001512  8A                 	db	138
   100   001513  0F                 	db	15
   101   001514  8B                 	db	139
   102   001515  0F                 	db	15
   103   001516  8C                 	db	140
   104   001517  0F                 	db	15
   105   001518  8D                 	db	141
   106   001519  0F                 	db	15
   107                           
   108                           ;initializer for _tris_register
   109   00151A  92                 	db	146
   110   00151B  0F                 	db	15
   111   00151C  93                 	db	147
   112   00151D  0F                 	db	15
   113   00151E  94                 	db	148
   114   00151F  0F                 	db	15
   115   001520  95                 	db	149
   116   001521  0F                 	db	15
   117   001522  96                 	db	150
   118   001523  0F                 	db	15
   119                           
   120                           ;initializer for _RB7_Flag
   121   001524  01                 	db	1
   122                           
   123                           ;initializer for _RB6_Flag
   124   001525  01                 	db	1
   125                           
   126                           ;initializer for _RB5_Flag
   127   001526  01                 	db	1
   128                           
   129                           ;initializer for _RB4_Flag
   130   001527  01                 	db	1
   131                           
   132                           ;initializer for _LCD_1
   133   001528  20                 	db	32
   134   001529  28                 	db	40
   135   00152A  00                 	db	0
   136   00152B  08                 	db	8
   137   00152C  10                 	db	16
   138   00152D  18                 	db	24
   139                           
   140                           ;initializer for _Alarm
   141   00152E  23                 	db	35
   142                           
   143                           ;initializer for _GuestLed
   144   00152F  13                 	db	19
   145                           
   146                           ;initializer for _AdminLed
   147   001530  03                 	db	3
   148                           
   149                           	psect	idataBANK0
   150   00154A                     __pidataBANK0:
   151                           	callstack 0
   152                           
   153                           ;initializer for _port_register
   154   00154A  80                 	db	128
   155   00154B  0F                 	db	15
   156   00154C  81                 	db	129
   157   00154D  0F                 	db	15
   158   00154E  82                 	db	130
   159   00154F  0F                 	db	15
   160   001550  83                 	db	131
   161   001551  0F                 	db	15
   162   001552  84                 	db	132
   163   001553  0F                 	db	15
   164                           
   165                           ;initializer for _keypad_1
   166   001554  01                 	db	1
   167   001555  09                 	db	9
   168   001556  11                 	db	17
   169   001557  19                 	db	25
   170   001558  61                 	db	97
   171   001559  69                 	db	105
   172   00155A  71                 	db	113
   173   00155B  79                 	db	121
   174                           
   175                           	psect	mediumconst
   176   00FEDC                     __pmediumconst:
   177                           	callstack 0
   178   00FEDC  00                 	db	0
   179   00FEDD                     _btn_keypad:
   180                           	callstack 0
   181   00FEDD  37                 	db	55
   182   00FEDE  38                 	db	56
   183   00FEDF  39                 	db	57
   184   00FEE0  2F                 	db	47
   185   00FEE1  34                 	db	52
   186   00FEE2  35                 	db	53
   187   00FEE3  36                 	db	54
   188   00FEE4  2A                 	db	42
   189   00FEE5  31                 	db	49
   190   00FEE6  32                 	db	50
   191   00FEE7  33                 	db	51
   192   00FEE8  2D                 	db	45
   193   00FEE9  23                 	db	35
   194   00FEEA  30                 	db	48
   195   00FEEB  3D                 	db	61
   196   00FEEC  2B                 	db	43
   197   00FEED                     __end_of_btn_keypad:
   198                           	callstack 0
   199   000000                     _SPBRGH	set	4016
   200   000000                     _SPBRG	set	4015
   201   000000                     _TXSTAbits	set	4012
   202   000000                     _TXREG	set	4013
   203   000000                     _RCREG	set	4014
   204   000000                     _RCSTAbits	set	4011
   205   000000                     _TMR3L	set	4018
   206   000000                     _TMR3H	set	4019
   207   000000                     _TMR2	set	4044
   208   000000                     _T2CONbits	set	4042
   209   000000                     _TMR1L	set	4046
   210   000000                     _TMR1H	set	4047
   211   000000                     _T1CONbits	set	4045
   212   000000                     _TMR0L	set	4054
   213   000000                     _TMR0H	set	4055
   214   000000                     _T0CONbits	set	4053
   215   000000                     _SSPBUF	set	4041
   216   000000                     _SSPSTATbits	set	4039
   217   000000                     _SSPADD	set	4040
   218   000000                     _SSPCON2bits	set	4037
   219   000000                     _SSPCON1bits	set	4038
   220   000000                     _EECON2	set	4007
   221   000000                     _INTCONbits	set	4082
   222   000000                     _CCPR2H	set	4028
   223   000000                     _CCPR1H	set	4031
   224   000000                     _CCPR2L	set	4027
   225   000000                     _CCPR1L	set	4030
   226   000000                     _PR2	set	4043
   227   000000                     _TRISCbits	set	3988
   228   000000                     _ADCON1bits	set	4033
   229   000000                     _ADRESL	set	4035
   230   000000                     _ADRESH	set	4036
   231   000000                     _LATB	set	3978
   232   000000                     _TRISD	set	3989
   233   000000                     _TRISB	set	3987
   234   000000                     _TRISE	set	3990
   235   000000                     _TRISAbits	set	3986
   236   000000                     _LATC	set	3979
   237   000000                     _TRISC	set	3988
   238   000000                     _LATCbits	set	3979
   239   000000                     _ADCON2bits	set	4032
   240   000000                     _ADCON0bits	set	4034
   241   000000                     _PORTE	set	3972
   242   000000                     _PORTD	set	3971
   243   000000                     _PORTC	set	3970
   244   000000                     _PORTB	set	3969
   245   000000                     _PORTA	set	3968
   246   000000                     _LATA	set	3977
   247   000000                     _TRISA	set	3986
   248   000000                     _PIE1bits	set	3997
   249   000000                     _PIR1bits	set	3998
   250   000000                     _CCP2CONbits	set	4026
   251   000000                     _CCP1CONbits	set	4029
   252   000000                     _LATE	set	3981
   253   000000                     _LATD	set	3980
   254   000000                     _PIE2bits	set	4000
   255   000000                     _PIR2bits	set	4001
   256   000000                     _EECON1bits	set	4006
   257   000000                     _EEDATA	set	4008
   258   000000                     _EEADR	set	4009
   259   000000                     _EEADRH	set	4010
   260   000000                     _T3CONbits	set	4017
   261   000000                     _BAUDCONbits	set	4024
   262   00FEED                     STR_42:
   263   00FEED  53                 	db	83	;'S'
   264   00FEEE  79                 	db	121	;'y'
   265   00FEEF  73                 	db	115	;'s'
   266   00FEF0  74                 	db	116	;'t'
   267   00FEF1  65                 	db	101	;'e'
   268   00FEF2  6D                 	db	109	;'m'
   269   00FEF3  20                 	db	32
   270   00FEF4  53                 	db	83	;'S'
   271   00FEF5  68                 	db	104	;'h'
   272   00FEF6  75                 	db	117	;'u'
   273   00FEF7  74                 	db	116	;'t'
   274   00FEF8  44                 	db	68	;'D'
   275   00FEF9  6F                 	db	111	;'o'
   276   00FEFA  77                 	db	119	;'w'
   277   00FEFB  6E                 	db	110	;'n'
   278   00FEFC  21                 	db	33
   279   00FEFD  00                 	db	0
   280   00FEFE                     STR_4:
   281   00FEFE  57                 	db	87	;'W'
   282   00FEFF  65                 	db	101	;'e'
   283   00FF00  6C                 	db	108	;'l'
   284   00FF01  63                 	db	99	;'c'
   285   00FF02  6F                 	db	111	;'o'
   286   00FF03  6D                 	db	109	;'m'
   287   00FF04  65                 	db	101	;'e'
   288   00FF05  20                 	db	32
   289   00FF06  74                 	db	116	;'t'
   290   00FF07  6F                 	db	111	;'o'
   291   00FF08  20                 	db	32
   292   00FF09  53                 	db	83	;'S'
   293   00FF0A  6D                 	db	109	;'m'
   294   00FF0B  61                 	db	97	;'a'
   295   00FF0C  72                 	db	114	;'r'
   296   00FF0D  74                 	db	116	;'t'
   297   00FF0E  00                 	db	0
   298   00FF0F                     STR_17:
   299   00FF0F  31                 	db	49	;'1'
   300   00FF10  2E                 	db	46
   301   00FF11  41                 	db	65	;'A'
   302   00FF12  64                 	db	100	;'d'
   303   00FF13  6D                 	db	109	;'m'
   304   00FF14  69                 	db	105	;'i'
   305   00FF15  6E                 	db	110	;'n'
   306   00FF16  20                 	db	32
   307   00FF17  20                 	db	32
   308   00FF18  32                 	db	50	;'2'
   309   00FF19  2E                 	db	46
   310   00FF1A  47                 	db	71	;'G'
   311   00FF1B  75                 	db	117	;'u'
   312   00FF1C  65                 	db	101	;'e'
   313   00FF1D  73                 	db	115	;'s'
   314   00FF1E  74                 	db	116	;'t'
   315   00FF1F  00                 	db	0
   316   00FF20                     STR_6:
   317   00FF20  4C                 	db	76	;'L'
   318   00FF21  6F                 	db	111	;'o'
   319   00FF22  67                 	db	103	;'g'
   320   00FF23  69                 	db	105	;'i'
   321   00FF24  6E                 	db	110	;'n'
   322   00FF25  20                 	db	32
   323   00FF26  66                 	db	102	;'f'
   324   00FF27  6F                 	db	111	;'o'
   325   00FF28  72                 	db	114	;'r'
   326   00FF29  20                 	db	32
   327   00FF2A  66                 	db	102	;'f'
   328   00FF2B  69                 	db	105	;'i'
   329   00FF2C  72                 	db	114	;'r'
   330   00FF2D  73                 	db	115	;'s'
   331   00FF2E  74                 	db	116	;'t'
   332   00FF2F  00                 	db	0
   333   00FF30                     STR_8:
   334   00FF30  53                 	db	83	;'S'
   335   00FF31  65                 	db	101	;'e'
   336   00FF32  74                 	db	116	;'t'
   337   00FF33  20                 	db	32
   338   00FF34  41                 	db	65	;'A'
   339   00FF35  64                 	db	100	;'d'
   340   00FF36  6D                 	db	109	;'m'
   341   00FF37  69                 	db	105	;'i'
   342   00FF38  6E                 	db	110	;'n'
   343   00FF39  20                 	db	32
   344   00FF3A  50                 	db	80	;'P'
   345   00FF3B  61                 	db	97	;'a'
   346   00FF3C  73                 	db	115	;'s'
   347   00FF3D  73                 	db	115	;'s'
   348   00FF3E  00                 	db	0
   349   00FF3F                     STR_12:
   350   00FF3F  53                 	db	83	;'S'
   351   00FF40  65                 	db	101	;'e'
   352   00FF41  74                 	db	116	;'t'
   353   00FF42  20                 	db	32
   354   00FF43  47                 	db	71	;'G'
   355   00FF44  75                 	db	117	;'u'
   356   00FF45  65                 	db	101	;'e'
   357   00FF46  73                 	db	115	;'s'
   358   00FF47  74                 	db	116	;'t'
   359   00FF48  20                 	db	32
   360   00FF49  50                 	db	80	;'P'
   361   00FF4A  61                 	db	97	;'a'
   362   00FF4B  73                 	db	115	;'s'
   363   00FF4C  73                 	db	115	;'s'
   364   00FF4D  00                 	db	0
   365   00FF4E                     STR_27:
   366   00FF4E  57                 	db	87	;'W'
   367   00FF4F  61                 	db	97	;'a'
   368   00FF50  69                 	db	105	;'i'
   369   00FF51  74                 	db	116	;'t'
   370   00FF52  69                 	db	105	;'i'
   371   00FF53  6E                 	db	110	;'n'
   372   00FF54  67                 	db	103	;'g'
   373   00FF55  20                 	db	32
   374   00FF56  35                 	db	53	;'5'
   375   00FF57  20                 	db	32
   376   00FF58  53                 	db	83	;'S'
   377   00FF59  65                 	db	101	;'e'
   378   00FF5A  63                 	db	99	;'c'
   379   00FF5B  00                 	db	0
   380   00FF5C                     STR_23:
   381   00FF5C  4C                 	db	76	;'L'
   382   00FF5D  6F                 	db	111	;'o'
   383   00FF5E  67                 	db	103	;'g'
   384   00FF5F  69                 	db	105	;'i'
   385   00FF60  6E                 	db	110	;'n'
   386   00FF61  20                 	db	32
   387   00FF62  53                 	db	83	;'S'
   388   00FF63  75                 	db	117	;'u'
   389   00FF64  63                 	db	99	;'c'
   390   00FF65  63                 	db	99	;'c'
   391   00FF66  65                 	db	101	;'e'
   392   00FF67  73                 	db	115	;'s'
   393   00FF68  73                 	db	115	;'s'
   394   00FF69  00                 	db	0
   395   00FF6A                     STR_39:
   396   00FF6A  43                 	db	67	;'C'
   397   00FF6B  6F                 	db	111	;'o'
   398   00FF6C  6E                 	db	110	;'n'
   399   00FF6D  74                 	db	116	;'t'
   400   00FF6E  72                 	db	114	;'r'
   401   00FF6F  6F                 	db	111	;'o'
   402   00FF70  6C                 	db	108	;'l'
   403   00FF71  20                 	db	32
   404   00FF72  48                 	db	72	;'H'
   405   00FF73  65                 	db	101	;'e'
   406   00FF74  72                 	db	114	;'r'
   407   00FF75  65                 	db	101	;'e'
   408   00FF76  00                 	db	0
   409   00FF77                     STR_9:
   410   00FF77  41                 	db	65	;'A'
   411   00FF78  64                 	db	100	;'d'
   412   00FF79  6D                 	db	109	;'m'
   413   00FF7A  69                 	db	105	;'i'
   414   00FF7B  6E                 	db	110	;'n'
   415   00FF7C  20                 	db	32
   416   00FF7D  50                 	db	80	;'P'
   417   00FF7E  61                 	db	97	;'a'
   418   00FF7F  73                 	db	115	;'s'
   419   00FF80  73                 	db	115	;'s'
   420   00FF81  3A                 	db	58	;':'
   421   00FF82  00                 	db	0
   422   00FF83                     STR_13:
   423   00FF83  47                 	db	71	;'G'
   424   00FF84  75                 	db	117	;'u'
   425   00FF85  65                 	db	101	;'e'
   426   00FF86  73                 	db	115	;'s'
   427   00FF87  74                 	db	116	;'t'
   428   00FF88  20                 	db	32
   429   00FF89  50                 	db	80	;'P'
   430   00FF8A  61                 	db	97	;'a'
   431   00FF8B  73                 	db	115	;'s'
   432   00FF8C  73                 	db	115	;'s'
   433   00FF8D  3A                 	db	58	;':'
   434   00FF8E  00                 	db	0
   435   00FF8F                     STR_18:
   436   00FF8F  41                 	db	65	;'A'
   437   00FF90  64                 	db	100	;'d'
   438   00FF91  6D                 	db	109	;'m'
   439   00FF92  69                 	db	105	;'i'
   440   00FF93  6E                 	db	110	;'n'
   441   00FF94  20                 	db	32
   442   00FF95  4C                 	db	76	;'L'
   443   00FF96  6F                 	db	111	;'o'
   444   00FF97  67                 	db	103	;'g'
   445   00FF98  69                 	db	105	;'i'
   446   00FF99  6E                 	db	110	;'n'
   447   00FF9A  00                 	db	0
   448   00FF9B                     STR_28:
   449   00FF9B  47                 	db	71	;'G'
   450   00FF9C  75                 	db	117	;'u'
   451   00FF9D  65                 	db	101	;'e'
   452   00FF9E  73                 	db	115	;'s'
   453   00FF9F  74                 	db	116	;'t'
   454   00FFA0  20                 	db	32
   455   00FFA1  4C                 	db	76	;'L'
   456   00FFA2  6F                 	db	111	;'o'
   457   00FFA3  67                 	db	103	;'g'
   458   00FFA4  69                 	db	105	;'i'
   459   00FFA5  6E                 	db	110	;'n'
   460   00FFA6  00                 	db	0
   461   00FFA7                     STR_38:
   462   00FFA7  41                 	db	65	;'A'
   463   00FFA8  64                 	db	100	;'d'
   464   00FFA9  6D                 	db	109	;'m'
   465   00FFAA  69                 	db	105	;'i'
   466   00FFAB  6E                 	db	110	;'n'
   467   00FFAC  20                 	db	32
   468   00FFAD  53                 	db	83	;'S'
   469   00FFAE  74                 	db	116	;'t'
   470   00FFAF  61                 	db	97	;'a'
   471   00FFB0  72                 	db	114	;'r'
   472   00FFB1  74                 	db	116	;'t'
   473   00FFB2  00                 	db	0
   474   00FFB3                     STR_40:
   475   00FFB3  47                 	db	71	;'G'
   476   00FFB4  75                 	db	117	;'u'
   477   00FFB5  65                 	db	101	;'e'
   478   00FFB6  73                 	db	115	;'s'
   479   00FFB7  74                 	db	116	;'t'
   480   00FFB8  20                 	db	32
   481   00FFB9  53                 	db	83	;'S'
   482   00FFBA  74                 	db	116	;'t'
   483   00FFBB  61                 	db	97	;'a'
   484   00FFBC  72                 	db	114	;'r'
   485   00FFBD  74                 	db	116	;'t'
   486   00FFBE  00                 	db	0
   487   00FFBF                     STR_11:
   488   00FFBF  43                 	db	67	;'C'
   489   00FFC0  72                 	db	114	;'r'
   490   00FFC1  65                 	db	101	;'e'
   491   00FFC2  61                 	db	97	;'a'
   492   00FFC3  74                 	db	116	;'t'
   493   00FFC4  65                 	db	101	;'e'
   494   00FFC5  64                 	db	100	;'d'
   495   00FFC6  20                 	db	32
   496   00FFC7  3A                 	db	58	;':'
   497   00FFC8  29                 	db	41
   498   00FFC9  00                 	db	0
   499   00FFCA                     STR_24:
   500   00FFCA  57                 	db	87	;'W'
   501   00FFCB  72                 	db	114	;'r'
   502   00FFCC  6F                 	db	111	;'o'
   503   00FFCD  6E                 	db	110	;'n'
   504   00FFCE  67                 	db	103	;'g'
   505   00FFCF  20                 	db	32
   506   00FFD0  50                 	db	80	;'P'
   507   00FFD1  61                 	db	97	;'a'
   508   00FFD2  73                 	db	115	;'s'
   509   00FFD3  73                 	db	115	;'s'
   510   00FFD4  00                 	db	0
   511   00FFD5                     STR_25:
   512   00FFD5  54                 	db	84	;'T'
   513   00FFD6  72                 	db	114	;'r'
   514   00FFD7  79                 	db	121	;'y'
   515   00FFD8  20                 	db	32
   516   00FFD9  41                 	db	65	;'A'
   517   00FFDA  67                 	db	103	;'g'
   518   00FFDB  61                 	db	97	;'a'
   519   00FFDC  69                 	db	105	;'i'
   520   00FFDD  6E                 	db	110	;'n'
   521   00FFDE  00                 	db	0
   522   00FFDF                     STR_16:
   523   00FFDF  4C                 	db	76	;'L'
   524   00FFE0  6F                 	db	111	;'o'
   525   00FFE1  67                 	db	103	;'g'
   526   00FFE2  69                 	db	105	;'i'
   527   00FFE3  6E                 	db	110	;'n'
   528   00FFE4  20                 	db	32
   529   00FFE5  61                 	db	97	;'a'
   530   00FFE6  73                 	db	115	;'s'
   531   00FFE7  00                 	db	0
   532   00FFE8                     STR_26:
   533   00FFE8  20                 	db	32
   534   00FFE9  20                 	db	32
   535   00FFEA  20                 	db	32
   536   00FFEB  20                 	db	32
   537   00FFEC  20                 	db	32
   538   00FFED  20                 	db	32
   539   00FFEE  00                 	db	0
   540   00FFEF                     STR_7:
   541   00FFEF  74                 	db	116	;'t'
   542   00FFF0  69                 	db	105	;'i'
   543   00FFF1  6D                 	db	109	;'m'
   544   00FFF2  65                 	db	101	;'e'
   545   00FFF3  00                 	db	0
   546   00FFF4                     STR_5:
   547   00FFF4  48                 	db	72	;'H'
   548   00FFF5  6F                 	db	111	;'o'
   549   00FFF6  6D                 	db	109	;'m'
   550   00FFF7  65                 	db	101	;'e'
   551   00FFF8  00                 	db	0
   552   00FFF9                     STR_1:
   553   00FFF9  25                 	db	37
   554   00FFFA  69                 	db	105	;'i'
   555   00FFFB  00                 	db	0
   556   00FFFC                     STR_22:
   557   00FFFC  48                 	db	72	;'H'
   558   00FFFD  00                 	db	0
   559   00FFFE  00                 	db	0	; dummy byte at the end
   560   000000                     
   561                           ; #config settings
   562                           
   563                           	psect	cinit
   564   001206                     __pcinit:
   565                           	callstack 0
   566   001206                     start_initialization:
   567                           	callstack 0
   568   001206                     __initialization:
   569                           	callstack 0
   570                           
   571                           ; Initialize objects allocated to BANK0 (18 bytes)
   572                           ; load TBLPTR registers with __pidataBANK0
   573   001206  0E4A               	movlw	low __pidataBANK0
   574   001208  6EF6               	movwf	tblptrl,c
   575   00120A  0E15               	movlw	high __pidataBANK0
   576   00120C  6EF7               	movwf	tblptrh,c
   577   00120E  0E00               	movlw	low (__pidataBANK0 shr (0+16))
   578   001210  6EF8               	movwf	tblptru,c
   579   001212  EE00  F080         	lfsr	0,__pdataBANK0
   580   001216  EE10 F012          	lfsr	1,18
   581   00121A                     copy_data0:
   582   00121A  0009               	tblrd		*+
   583   00121C  CFF5 FFEE          	movff	tablat,postinc0
   584   001220  50E5               	movf	postdec1,w,c
   585   001222  50E1               	movf	fsr1l,w,c
   586   001224  E1FA               	bnz	copy_data0
   587                           
   588                           ; Initialize objects allocated to COMRAM (33 bytes)
   589                           ; load TBLPTR registers with __pidataCOMRAM
   590   001226  0E10               	movlw	low __pidataCOMRAM
   591   001228  6EF6               	movwf	tblptrl,c
   592   00122A  0E15               	movlw	high __pidataCOMRAM
   593   00122C  6EF7               	movwf	tblptrh,c
   594   00122E  0E00               	movlw	low (__pidataCOMRAM shr (0+16))
   595   001230  6EF8               	movwf	tblptru,c
   596   001232  EE00  F05B         	lfsr	0,__pdataCOMRAM
   597   001236  EE10 F021          	lfsr	1,33
   598   00123A                     copy_data1:
   599   00123A  0009               	tblrd		*+
   600   00123C  CFF5 FFEE          	movff	tablat,postinc0
   601   001240  50E5               	movf	postdec1,w,c
   602   001242  50E1               	movf	fsr1l,w,c
   603   001244  E1FA               	bnz	copy_data1
   604                           
   605                           ; Clear objects allocated to COMRAM (49 bytes)
   606   001246  EE00  F001         	lfsr	0,__pbssCOMRAM
   607   00124A  0E31               	movlw	49
   608   00124C                     clear_0:
   609   00124C  6AEE               	clrf	postinc0,c
   610   00124E  06E8               	decf	wreg,f,c
   611   001250  E1FD               	bnz	clear_0
   612   001252                     end_of_initialization:
   613                           	callstack 0
   614   001252                     __end_of__initialization:
   615                           	callstack 0
   616   001252  907C               	bcf	int$flags,0,c	;clear compiler interrupt flag (level 1)
   617   001254  927C               	bcf	int$flags,1,c	;clear compiler interrupt flag (level 2)
   618   001256  0100               	movlb	0
   619   001258  EF99  F00A         	goto	_main	;jump to C main() function
   620                           
   621                           	psect	bssCOMRAM
   622   000001                     __pbssCOMRAM:
   623                           	callstack 0
   624   000001                     _EUSART_FramingErr_InterruptHandler:
   625                           	callstack 0
   626   000001                     	ds	2
   627   000003                     _EUSART_OverrunErr_InterruptHandler:
   628                           	callstack 0
   629   000003                     	ds	2
   630   000005                     _EUSART_RX_InterruptHandler:
   631                           	callstack 0
   632   000005                     	ds	2
   633   000007                     _EUSART_TX_InterruptHandler:
   634                           	callstack 0
   635   000007                     	ds	2
   636   000009                     _Timer3_Preload:
   637                           	callstack 0
   638   000009                     	ds	2
   639   00000B                     _Timer1_Preload:
   640                           	callstack 0
   641   00000B                     	ds	2
   642   00000D                     _Timer0_Preload:
   643                           	callstack 0
   644   00000D                     	ds	2
   645   00000F                     _RB7_Call_Back_fun_LOW:
   646                           	callstack 0
   647   00000F                     	ds	2
   648   000011                     _RB7_Call_Back_fun_HIGH:
   649                           	callstack 0
   650   000011                     	ds	2
   651   000013                     _RB6_Call_Back_fun_LOW:
   652                           	callstack 0
   653   000013                     	ds	2
   654   000015                     _RB6_Call_Back_fun_HIGH:
   655                           	callstack 0
   656   000015                     	ds	2
   657   000017                     _RB5_Call_Back_fun_LOW:
   658                           	callstack 0
   659   000017                     	ds	2
   660   000019                     _RB5_Call_Back_fun_HIGH:
   661                           	callstack 0
   662   000019                     	ds	2
   663   00001B                     _RB4_Call_Back_fun_LOW:
   664                           	callstack 0
   665   00001B                     	ds	2
   666   00001D                     _RB4_Call_Back_fun_HIGH:
   667                           	callstack 0
   668   00001D                     	ds	2
   669   00001F                     _INT2_Call_Back_fun:
   670                           	callstack 0
   671   00001F                     	ds	2
   672   000021                     _INT1_Call_Back_fun:
   673                           	callstack 0
   674   000021                     	ds	2
   675   000023                     _INT0_Call_Back_fun:
   676                           	callstack 0
   677   000023                     	ds	2
   678   000025                     _MSSP_I2C_collision_IntrruptHandler:
   679                           	callstack 0
   680   000025                     	ds	2
   681   000027                     _MSSP_I2C_Recieve_OverFlow_InterruptHandler:
   682                           	callstack 0
   683   000027                     	ds	2
   684   000029                     _MSSP_I2C_InterruptHandler:
   685                           	callstack 0
   686   000029                     	ds	2
   687   00002B                     CCP_CaptureMode_Read_Value@F3124:
   688                           	callstack 0
   689   00002B                     	ds	2
   690   00002D                     _Timer2_Preload:
   691                           	callstack 0
   692   00002D                     	ds	1
   693   00002E                     led_turn_toggle@F3074:
   694                           	callstack 0
   695   00002E                     	ds	1
   696   00002F                     led_turn_off@F3069:
   697                           	callstack 0
   698   00002F                     	ds	1
   699   000030                     led_turn_on@F3064:
   700                           	callstack 0
   701   000030                     	ds	1
   702   000031                     led_initialize@F3059:
   703                           	callstack 0
   704   000031                     	ds	1
   705                           
   706                           	psect	dataCOMRAM
   707   00005B                     __pdataCOMRAM:
   708                           	callstack 0
   709   00005B                     _lat_register:
   710                           	callstack 0
   711   00005B                     	ds	10
   712   000065                     _tris_register:
   713                           	callstack 0
   714   000065                     	ds	10
   715   00006F                     _RB7_Flag:
   716                           	callstack 0
   717   00006F                     	ds	1
   718   000070                     _RB6_Flag:
   719                           	callstack 0
   720   000070                     	ds	1
   721   000071                     _RB5_Flag:
   722                           	callstack 0
   723   000071                     	ds	1
   724   000072                     _RB4_Flag:
   725                           	callstack 0
   726   000072                     	ds	1
   727   000073                     _LCD_1:
   728                           	callstack 0
   729   000073                     	ds	6
   730   000079                     _Alarm:
   731                           	callstack 0
   732   000079                     	ds	1
   733   00007A                     _GuestLed:
   734                           	callstack 0
   735   00007A                     	ds	1
   736   00007B                     _AdminLed:
   737                           	callstack 0
   738   00007B                     	ds	1
   739                           
   740                           	psect	dataBANK0
   741   000080                     __pdataBANK0:
   742                           	callstack 0
   743   000080                     _port_register:
   744                           	callstack 0
   745   000080                     	ds	10
   746   00008A                     _keypad_1:
   747                           	callstack 0
   748   00008A                     	ds	8
   749                           
   750                           	psect	cstackCOMRAM
   751   000032                     __pcstackCOMRAM:
   752                           	callstack 0
   753   000032                     gpio_pin_direction_intialize@_pin_config:
   754                           	callstack 0
   755   000032                     gpio_pin_write_logic@_pin_config:
   756                           	callstack 0
   757   000032                     gpio_pin_read_logic@_pin_config:
   758                           	callstack 0
   759   000032                     StringCompare@str1:
   760                           	callstack 0
   761   000032                     EEPROM_Data_Write@Add:
   762                           	callstack 0
   763   000032                     EEPROM_Data_Read@Add:
   764                           	callstack 0
   765   000032                     delay_ms@val:
   766                           	callstack 0
   767                           
   768                           ; 4 bytes @ 0x0
   769   000032                     	ds	1
   770   000033                     ??_gpio_pin_direction_intialize:
   771   000033                     gpio_pin_write_logic@logic:
   772                           	callstack 0
   773   000033                     gpio_pin_read_logic@logic:
   774                           	callstack 0
   775   000033                     StringCompare@str2:
   776                           	callstack 0
   777                           
   778                           ; 1 bytes @ 0x1
   779   000033                     	ds	1
   780   000034                     ??_gpio_pin_write_logic:
   781   000034                     ??_gpio_pin_read_logic:
   782   000034                     EEPROM_Data_Write@Data:
   783                           	callstack 0
   784   000034                     EEPROM_Data_Read@Data:
   785                           	callstack 0
   786   000034                     StringCompare@Length:
   787                           	callstack 0
   788                           
   789                           ; 1 bytes @ 0x2
   790   000034                     	ds	1
   791   000035                     EEPROM_Data_Write@Interrupt_Global_Status:
   792                           	callstack 0
   793                           
   794                           ; 1 bytes @ 0x3
   795   000035                     	ds	1
   796   000036                     ??_delay_ms:
   797                           
   798                           ; 1 bytes @ 0x4
   799   000036                     	ds	1
   800   000037                     StringCompare@i:
   801                           	callstack 0
   802                           
   803                           ; 1 bytes @ 0x5
   804   000037                     	ds	1
   805   000038                     gpio_pin_direction_intialize@status:
   806                           	callstack 0
   807   000038                     gpio_pin_read_logic@status:
   808                           	callstack 0
   809                           
   810                           ; 1 bytes @ 0x6
   811   000038                     	ds	1
   812   000039                     gpio_pin_write_logic@status:
   813                           	callstack 0
   814                           
   815                           ; 1 bytes @ 0x7
   816   000039                     	ds	1
   817   00003A                     keypad_get_value@_keypad:
   818                           	callstack 0
   819   00003A                     lcd_send_4bit@_lcd:
   820                           	callstack 0
   821   00003A                     lcd_send_enable@_lcd:
   822                           	callstack 0
   823   00003A                     led_turn_on@led:
   824                           	callstack 0
   825   00003A                     gpio_pin_intialize@_pin_config:
   826                           	callstack 0
   827   00003A                     delay_ms@i:
   828                           	callstack 0
   829                           
   830                           ; 2 bytes @ 0x8
   831   00003A                     	ds	1
   832   00003B                     ??_gpio_pin_intialize:
   833   00003B                     ??_led_turn_on:
   834   00003B                     keypad_get_value@value:
   835                           	callstack 0
   836   00003B                     lcd_send_4bit@data_command:
   837                           	callstack 0
   838   00003B                     lcd_send_enable@status:
   839                           	callstack 0
   840                           
   841                           ; 1 bytes @ 0x9
   842   00003B                     	ds	1
   843   00003C                     ??_keypad_get_value:
   844   00003C                     lcd_send_4bit@status:
   845                           	callstack 0
   846   00003C                     led_turn_on@pin_obj:
   847                           	callstack 0
   848   00003C                     gpio_pin_intialize@status:
   849                           	callstack 0
   850   00003C                     delay_ms@j:
   851                           	callstack 0
   852                           
   853                           ; 2 bytes @ 0xA
   854   00003C                     	ds	1
   855   00003D                     keypad_intialize@_keypad:
   856                           	callstack 0
   857   00003D                     lcd_4bit_send_command@_lcd:
   858                           	callstack 0
   859   00003D                     lcd_4bit_send_char_data@_lcd:
   860                           	callstack 0
   861   00003D                     led_initialize@led:
   862                           	callstack 0
   863                           
   864                           ; 1 bytes @ 0xB
   865   00003D                     	ds	1
   866   00003E                     ??_led_initialize:
   867   00003E                     keypad_intialize@l_rows_counter:
   868                           	callstack 0
   869   00003E                     keypad_get_value@c_logic:
   870                           	callstack 0
   871   00003E                     lcd_4bit_send_command@command:
   872                           	callstack 0
   873   00003E                     lcd_4bit_send_char_data@data:
   874                           	callstack 0
   875                           
   876                           ; 1 bytes @ 0xC
   877   00003E                     	ds	1
   878   00003F                     keypad_intialize@l_columns_counter:
   879                           	callstack 0
   880   00003F                     keypad_get_value@l_counter:
   881                           	callstack 0
   882   00003F                     lcd_4bit_send_command@status:
   883                           	callstack 0
   884   00003F                     lcd_4bit_send_char_data@status:
   885                           	callstack 0
   886   00003F                     led_initialize@pin_obj:
   887                           	callstack 0
   888                           
   889                           ; 1 bytes @ 0xD
   890   00003F                     	ds	1
   891   000040                     keypad_get_value@l_rows_counter:
   892                           	callstack 0
   893   000040                     lcd_4bit_intialize@_lcd:
   894                           	callstack 0
   895   000040                     lcd_4bit_set_pos@_lcd:
   896                           	callstack 0
   897                           
   898                           ; 1 bytes @ 0xE
   899   000040                     	ds	1
   900   000041                     ??_lcd_4bit_intialize:
   901   000041                     keypad_get_value@l_columns_counter:
   902                           	callstack 0
   903   000041                     lcd_4bit_set_pos@row:
   904                           	callstack 0
   905                           
   906                           ; 1 bytes @ 0xF
   907   000041                     	ds	1
   908   000042                     lcd_4bit_intialize@status:
   909                           	callstack 0
   910   000042                     lcd_4bit_set_pos@column:
   911                           	callstack 0
   912                           
   913                           ; 1 bytes @ 0x10
   914   000042                     	ds	1
   915   000043                     ??_lcd_4bit_set_pos:
   916   000043                     lcd_4bit_intialize@data_counter:
   917                           	callstack 0
   918                           
   919                           ; 1 bytes @ 0x11
   920   000043                     	ds	1
   921   000044                     
   922                           ; 1 bytes @ 0x12
   923   000044                     	ds	1
   924   000045                     lcd_4bit_set_pos@status:
   925                           	callstack 0
   926                           
   927                           ; 1 bytes @ 0x13
   928   000045                     	ds	1
   929   000046                     lcd_4bit_send_char_data_pos@_lcd:
   930                           	callstack 0
   931   000046                     lcd_4bit_send_string_pos@_lcd:
   932                           	callstack 0
   933                           
   934                           ; 1 bytes @ 0x14
   935   000046                     	ds	1
   936   000047                     lcd_4bit_send_char_data_pos@row:
   937                           	callstack 0
   938   000047                     lcd_4bit_send_string_pos@row:
   939                           	callstack 0
   940                           
   941                           ; 1 bytes @ 0x15
   942   000047                     	ds	1
   943   000048                     lcd_4bit_send_char_data_pos@column:
   944                           	callstack 0
   945   000048                     lcd_4bit_send_string_pos@column:
   946                           	callstack 0
   947                           
   948                           ; 1 bytes @ 0x16
   949   000048                     	ds	1
   950   000049                     lcd_4bit_send_char_data_pos@data:
   951                           	callstack 0
   952   000049                     lcd_4bit_send_string_pos@str:
   953                           	callstack 0
   954                           
   955                           ; 2 bytes @ 0x17
   956   000049                     	ds	1
   957   00004A                     lcd_4bit_send_char_data_pos@status:
   958                           	callstack 0
   959                           
   960                           ; 1 bytes @ 0x18
   961   00004A                     	ds	1
   962   00004B                     AdminPassword@value:
   963                           	callstack 0
   964   00004B                     GuestPassword@value:
   965                           	callstack 0
   966   00004B                     AdminLogin@password:
   967                           	callstack 0
   968   00004B                     GuestLogin@password:
   969                           	callstack 0
   970                           
   971                           ; 4 bytes @ 0x19
   972   00004B                     	ds	1
   973   00004C                     AdminPassword@i:
   974                           	callstack 0
   975   00004C                     GuestPassword@i:
   976                           	callstack 0
   977                           
   978                           ; 1 bytes @ 0x1A
   979   00004C                     	ds	1
   980   00004D                     SetPassword@value:
   981                           	callstack 0
   982                           
   983                           ; 1 bytes @ 0x1B
   984   00004D                     	ds	2
   985   00004F                     AdminLogin@LoginPass:
   986                           	callstack 0
   987   00004F                     GuestLogin@LoginPass:
   988                           	callstack 0
   989                           
   990                           ; 4 bytes @ 0x1D
   991   00004F                     	ds	4
   992   000053                     AdminLogin@ShutDownValue:
   993                           	callstack 0
   994   000053                     GuestLogin@ShutDownValue:
   995                           	callstack 0
   996                           
   997                           ; 1 bytes @ 0x21
   998   000053                     	ds	1
   999   000054                     AdminLogin@tryAgain:
  1000                           	callstack 0
  1001   000054                     GuestLogin@tryAgain:
  1002                           	callstack 0
  1003                           
  1004                           ; 1 bytes @ 0x22
  1005   000054                     	ds	1
  1006   000055                     AdminLogin@i:
  1007                           	callstack 0
  1008   000055                     GuestLogin@i:
  1009                           	callstack 0
  1010                           
  1011                           ; 1 bytes @ 0x23
  1012   000055                     	ds	1
  1013   000056                     AdminLogin@i_3460:
  1014                           	callstack 0
  1015   000056                     GuestLogin@i_3478:
  1016                           	callstack 0
  1017                           
  1018                           ; 1 bytes @ 0x24
  1019   000056                     	ds	1
  1020   000057                     AdminLogin@value:
  1021                           	callstack 0
  1022   000057                     GuestLogin@value:
  1023                           	callstack 0
  1024                           
  1025                           ; 1 bytes @ 0x25
  1026   000057                     	ds	1
  1027   000058                     ??_SelectAdminOrGuest:
  1028                           
  1029                           ; 1 bytes @ 0x26
  1030   000058                     	ds	2
  1031   00005A                     SelectAdminOrGuest@value:
  1032                           	callstack 0
  1033                           
  1034                           ; 1 bytes @ 0x28
  1035   00005A                     	ds	1
  1036   00005B                     
  1037                           ; 1 bytes @ 0x29
  1038 ;;
  1039 ;;Main: autosize = 0, tempsize = 0, incstack = 0, save=0
  1040 ;;
  1041 ;; *************** function _main *****************
  1042 ;; Defined at:
  1043 ;;		line 9 in file "main.c"
  1044 ;; Parameters:    Size  Location     Type
  1045 ;;		None
  1046 ;; Auto vars:     Size  Location     Type
  1047 ;;		None
  1048 ;; Return value:  Size  Location     Type
  1049 ;;                  2  1482[None  ] int 
  1050 ;; Registers used:
  1051 ;;		wreg, fsr1l, fsr1h, fsr2l, fsr2h, status,2, status,0, tblptrl, tblptrh, tblptru, prodl, prodh, cstack
  1052 ;; Tracked objects:
  1053 ;;		On entry : 0/0
  1054 ;;		On exit  : 0/0
  1055 ;;		Unchanged: 0/0
  1056 ;; Data sizes:     COMRAM   BANK0   BANK1   BANK2   BANK3   BANK4   BANK5   BANK6   BANK7   BANK8   BANK9  BANK10  BANK1
      +1  BANK12  BANK13  BANK14  BANK15
  1057 ;;      Params:         0       0       0       0       0       0       0       0       0       0       0       0       
      +0       0       0       0       0
  1058 ;;      Locals:         0       0       0       0       0       0       0       0       0       0       0       0       
      +0       0       0       0       0
  1059 ;;      Temps:          0       0       0       0       0       0       0       0       0       0       0       0       
      +0       0       0       0       0
  1060 ;;      Totals:         0       0       0       0       0       0       0       0       0       0       0       0       
      +0       0       0       0       0
  1061 ;;Total ram usage:        0 bytes
  1062 ;; Hardware stack levels required when called: 10
  1063 ;; This function calls:
  1064 ;;		_SelectAdminOrGuest
  1065 ;;		_SetPassword
  1066 ;;		_Welcome
  1067 ;;		_application_initialize
  1068 ;; This function is called by:
  1069 ;;		Startup code after reset
  1070 ;; This function uses a non-reentrant model
  1071 ;;
  1072                           
  1073                           	psect	text0
  1074   001532                     __ptext0:
  1075                           	callstack 0
  1076   001532                     _main:
  1077                           	callstack 21
  1078   001532                     
  1079                           ;main.c: 10:     application_initialize();
  1080   001532  ECAE  F00A         	call	_application_initialize	;wreg free
  1081   001536                     
  1082                           ;main.c: 12:     Welcome();
  1083   001536  EC2E  F009         	call	_Welcome	;wreg free
  1084   00153A                     
  1085                           ;main.c: 13:     SetPassword();
  1086   00153A  EC14  F007         	call	_SetPassword	;wreg free
  1087   00153E                     l5910:
  1088                           
  1089                           ;main.c: 15:         SelectAdminOrGuest();
  1090   00153E  EC1C  F006         	call	_SelectAdminOrGuest	;wreg free
  1091   001542  EF9F  F00A         	goto	l5910
  1092   001546  EF07  F000         	goto	start
  1093   00154A                     __end_of_main:
  1094                           	callstack 0
  1095                           
  1096 ;; *************** function _application_initialize *****************
  1097 ;; Defined at:
  1098 ;;		line 20 in file "main.c"
  1099 ;; Parameters:    Size  Location     Type
  1100 ;;		None
  1101 ;; Auto vars:     Size  Location     Type
  1102 ;;  ret             1    0        unsigned char 
  1103 ;; Return value:  Size  Location     Type
  1104 ;;                  1    wreg      void 
  1105 ;; Registers used:
  1106 ;;		wreg, fsr2l, fsr2h, status,2, status,0, prodl, prodh, cstack
  1107 ;; Tracked objects:
  1108 ;;		On entry : 0/0
  1109 ;;		On exit  : 0/0
  1110 ;;		Unchanged: 0/0
  1111 ;; Data sizes:     COMRAM   BANK0   BANK1   BANK2   BANK3   BANK4   BANK5   BANK6   BANK7   BANK8   BANK9  BANK10  BANK1
      +1  BANK12  BANK13  BANK14  BANK15
  1112 ;;      Params:         0       0       0       0       0       0       0       0       0       0       0       0       
      +0       0       0       0       0
  1113 ;;      Locals:         0       0       0       0       0       0       0       0       0       0       0       0       
      +0       0       0       0       0
  1114 ;;      Temps:          0       0       0       0       0       0       0       0       0       0       0       0       
      +0       0       0       0       0
  1115 ;;      Totals:         0       0       0       0       0       0       0       0       0       0       0       0       
      +0       0       0       0       0
  1116 ;;Total ram usage:        0 bytes
  1117 ;; Hardware stack levels used: 1
  1118 ;; Hardware stack levels required when called: 7
  1119 ;; This function calls:
  1120 ;;		_ecu_layer_intialize
  1121 ;; This function is called by:
  1122 ;;		_main
  1123 ;; This function uses a non-reentrant model
  1124 ;;
  1125                           
  1126                           	psect	text1
  1127   00155C                     __ptext1:
  1128                           	callstack 0
  1129   00155C                     _application_initialize:
  1130                           	callstack 23
  1131   00155C                     
  1132                           ;main.c: 23:     ecu_layer_intialize();
  1133   00155C  EC60  F00A         	call	_ecu_layer_intialize	;wreg free
  1134   001560  0012               	return		;funcret
  1135   001562                     __end_of_application_initialize:
  1136                           	callstack 0
  1137                           
  1138 ;; *************** function _ecu_layer_intialize *****************
  1139 ;; Defined at:
  1140 ;;		line 87 in file "ECU_Layer/ecu_layer_init.c"
  1141 ;; Parameters:    Size  Location     Type
  1142 ;;		None
  1143 ;; Auto vars:     Size  Location     Type
  1144 ;;  ret             1    0        unsigned char 
  1145 ;; Return value:  Size  Location     Type
  1146 ;;                  1    wreg      void 
  1147 ;; Registers used:
  1148 ;;		wreg, fsr2l, fsr2h, status,2, status,0, prodl, prodh, cstack
  1149 ;; Tracked objects:
  1150 ;;		On entry : 0/0
  1151 ;;		On exit  : 0/0
  1152 ;;		Unchanged: 0/0
  1153 ;; Data sizes:     COMRAM   BANK0   BANK1   BANK2   BANK3   BANK4   BANK5   BANK6   BANK7   BANK8   BANK9  BANK10  BANK1
      +1  BANK12  BANK13  BANK14  BANK15
  1154 ;;      Params:         0       0       0       0       0       0       0       0       0       0       0       0       
      +0       0       0       0       0
  1155 ;;      Locals:         0       0       0       0       0       0       0       0       0       0       0       0       
      +0       0       0       0       0
  1156 ;;      Temps:          0       0       0       0       0       0       0       0       0       0       0       0       
      +0       0       0       0       0
  1157 ;;      Totals:         0       0       0       0       0       0       0       0       0       0       0       0       
      +0       0       0       0       0
  1158 ;;Total ram usage:        0 bytes
  1159 ;; Hardware stack levels used: 1
  1160 ;; Hardware stack levels required when called: 6
  1161 ;; This function calls:
  1162 ;;		_keypad_intialize
  1163 ;;		_lcd_4bit_intialize
  1164 ;;		_led_initialize
  1165 ;; This function is called by:
  1166 ;;		_application_initialize
  1167 ;; This function uses a non-reentrant model
  1168 ;;
  1169                           
  1170                           	psect	text2
  1171   0014C0                     __ptext2:
  1172                           	callstack 0
  1173   0014C0                     _ecu_layer_intialize:
  1174                           	callstack 23
  1175   0014C0                     
  1176                           ;ECU_Layer/ecu_layer_init.c: 89:     lcd_4bit_intialize(&LCD_1);
  1177   0014C0  0E73               	movlw	low _LCD_1
  1178   0014C2  6E40               	movwf	lcd_4bit_intialize@_lcd^0,c
  1179   0014C4  ECAD  F005         	call	_lcd_4bit_intialize	;wreg free
  1180   0014C8                     
  1181                           ;ECU_Layer/ecu_layer_init.c: 90:     keypad_intialize(&keypad_1);
  1182   0014C8  0E8A               	movlw	low _keypad_1
  1183   0014CA  6E3D               	movwf	keypad_intialize@_keypad^0,c
  1184   0014CC  ECED  F007         	call	_keypad_intialize	;wreg free
  1185   0014D0                     
  1186                           ;ECU_Layer/ecu_layer_init.c: 91:     led_initialize(&AdminLed);
  1187   0014D0  0E7B               	movlw	low _AdminLed
  1188   0014D2  6E3D               	movwf	led_initialize@led^0,c
  1189   0014D4  EC88  F007         	call	_led_initialize	;wreg free
  1190   0014D8                     
  1191                           ;ECU_Layer/ecu_layer_init.c: 92:     led_initialize(&GuestLed);
  1192   0014D8  0E7A               	movlw	low _GuestLed
  1193   0014DA  6E3D               	movwf	led_initialize@led^0,c
  1194   0014DC  EC88  F007         	call	_led_initialize	;wreg free
  1195   0014E0                     
  1196                           ;ECU_Layer/ecu_layer_init.c: 93:     led_initialize(&Alarm);
  1197   0014E0  0E79               	movlw	low _Alarm
  1198   0014E2  6E3D               	movwf	led_initialize@led^0,c
  1199   0014E4  EC88  F007         	call	_led_initialize	;wreg free
  1200   0014E8  0012               	return		;funcret
  1201   0014EA                     __end_of_ecu_layer_intialize:
  1202                           	callstack 0
  1203                           
  1204 ;; *************** function _led_initialize *****************
  1205 ;; Defined at:
  1206 ;;		line 11 in file "ECU_Layer/LED/ecu_led.c"
  1207 ;; Parameters:    Size  Location     Type
  1208 ;;  led             1   11[COMRAM] PTR const struct .
  1209 ;;		 -> Alarm(1), GuestLed(1), AdminLed(1), 
  1210 ;; Auto vars:     Size  Location     Type
  1211 ;;  pin_obj         1   13[COMRAM] struct .
  1212 ;;  status          1    0        unsigned char 
  1213 ;; Return value:  Size  Location     Type
  1214 ;;                  1    wreg      unsigned char 
  1215 ;; Registers used:
  1216 ;;		wreg, fsr2l, fsr2h, status,2, status,0, prodl, prodh, cstack
  1217 ;; Tracked objects:
  1218 ;;		On entry : 0/0
  1219 ;;		On exit  : 0/0
  1220 ;;		Unchanged: 0/0
  1221 ;; Data sizes:     COMRAM   BANK0   BANK1   BANK2   BANK3   BANK4   BANK5   BANK6   BANK7   BANK8   BANK9  BANK10  BANK1
      +1  BANK12  BANK13  BANK14  BANK15
  1222 ;;      Params:         1       0       0       0       0       0       0       0       0       0       0       0       
      +0       0       0       0       0
  1223 ;;      Locals:         1       0       0       0       0       0       0       0       0       0       0       0       
      +0       0       0       0       0
  1224 ;;      Temps:          1       0       0       0       0       0       0       0       0       0       0       0       
      +0       0       0       0       0
  1225 ;;      Totals:         3       0       0       0       0       0       0       0       0       0       0       0       
      +0       0       0       0       0
  1226 ;;Total ram usage:        3 bytes
  1227 ;; Hardware stack levels used: 1
  1228 ;; Hardware stack levels required when called: 4
  1229 ;; This function calls:
  1230 ;;		_gpio_pin_intialize
  1231 ;; This function is called by:
  1232 ;;		_ecu_layer_intialize
  1233 ;; This function uses a non-reentrant model
  1234 ;;
  1235                           
  1236                           	psect	text3
  1237   000F10                     __ptext3:
  1238                           	callstack 0
  1239   000F10                     _led_initialize:
  1240                           	callstack 24
  1241   000F10                     
  1242                           ;ECU_Layer/LED/ecu_led.c: 13:     if(((void*)0) == led){
  1243   000F10  503D               	movf	led_initialize@led^0,w,c
  1244   000F12  A4D8               	btfss	status,2,c
  1245   000F14  EF8E  F007         	goto	u3221
  1246   000F18  EF90  F007         	goto	u3220
  1247   000F1C                     u3221:
  1248   000F1C  EF92  F007         	goto	l192
  1249   000F20                     u3220:
  1250   000F20                     
  1251                           ;ECU_Layer/LED/ecu_led.c: 15:     }
  1252   000F20  EFBA  F007         	goto	l196
  1253   000F24                     l192:
  1254                           
  1255                           ;ECU_Layer/LED/ecu_led.c: 17:         pin_config_t pin_obj={.direction = GPIO_OUTPUT,
  1256   000F24  C031  F03F         	movff	led_initialize@F3059,led_initialize@pin_obj
  1257   000F28  503D               	movf	led_initialize@led^0,w,c
  1258   000F2A  6ED9               	movwf	fsr2l,c
  1259   000F2C  6ADA               	clrf	fsr2h,c
  1260   000F2E  50DF               	movf	223,w,c
  1261   000F30  0B0F               	andlw	15
  1262   000F32  6E3E               	movwf	??_led_initialize^0,c
  1263   000F34  503F               	movf	led_initialize@pin_obj^0,w,c
  1264   000F36  183E               	xorwf	??_led_initialize^0,w,c
  1265   000F38  0BF8               	andlw	-8
  1266   000F3A  183E               	xorwf	??_led_initialize^0,w,c
  1267   000F3C  6E3F               	movwf	led_initialize@pin_obj^0,c
  1268   000F3E  503D               	movf	led_initialize@led^0,w,c
  1269   000F40  6ED9               	movwf	fsr2l,c
  1270   000F42  6ADA               	clrf	fsr2h,c
  1271   000F44  38DF               	swapf	223,w,c
  1272   000F46  0B07               	andlw	7
  1273   000F48  6E3E               	movwf	??_led_initialize^0,c
  1274   000F4A  463E               	rlncf	??_led_initialize^0,f,c
  1275   000F4C  463E               	rlncf	??_led_initialize^0,f,c
  1276   000F4E  463E               	rlncf	??_led_initialize^0,f,c
  1277   000F50  503F               	movf	led_initialize@pin_obj^0,w,c
  1278   000F52  183E               	xorwf	??_led_initialize^0,w,c
  1279   000F54  0BC7               	andlw	-57
  1280   000F56  183E               	xorwf	??_led_initialize^0,w,c
  1281   000F58  6E3F               	movwf	led_initialize@pin_obj^0,c
  1282   000F5A  9C3F               	bcf	led_initialize@pin_obj^0,6,c
  1283   000F5C  503D               	movf	led_initialize@led^0,w,c
  1284   000F5E  6ED9               	movwf	fsr2l,c
  1285   000F60  6ADA               	clrf	fsr2h,c
  1286   000F62  AEDF               	btfss	indf2,7,c
  1287   000F64  D002               	bra	u3235
  1288   000F66  8E3F               	bsf	led_initialize@pin_obj^0,7,c
  1289   000F68  D001               	bra	u3237
  1290   000F6A                     u3235:
  1291   000F6A  9E3F               	bcf	led_initialize@pin_obj^0,7,c
  1292   000F6C                     u3237:
  1293   000F6C  0E3F               	movlw	low led_initialize@pin_obj
  1294   000F6E  6E3A               	movwf	gpio_pin_intialize@_pin_config^0,c
  1295   000F70  EC4D  F008         	call	_gpio_pin_intialize	;wreg free
  1296   000F74                     l196:
  1297   000F74  0012               	return		;funcret
  1298   000F76                     __end_of_led_initialize:
  1299                           	callstack 0
  1300                           
  1301 ;; *************** function _lcd_4bit_intialize *****************
  1302 ;; Defined at:
  1303 ;;		line 133 in file "ECU_Layer/LCD/ecu_lcd.c"
  1304 ;; Parameters:    Size  Location     Type
  1305 ;;  _lcd            1   14[COMRAM] PTR const struct .
  1306 ;;		 -> LCD_1(6), 
  1307 ;; Auto vars:     Size  Location     Type
  1308 ;;  data_counter    1   17[COMRAM] unsigned char 
  1309 ;;  status          1   16[COMRAM] unsigned char 
  1310 ;; Return value:  Size  Location     Type
  1311 ;;                  1    wreg      unsigned char 
  1312 ;; Registers used:
  1313 ;;		wreg, fsr2l, fsr2h, status,2, status,0, prodl, prodh, cstack
  1314 ;; Tracked objects:
  1315 ;;		On entry : 0/0
  1316 ;;		On exit  : 0/0
  1317 ;;		Unchanged: 0/0
  1318 ;; Data sizes:     COMRAM   BANK0   BANK1   BANK2   BANK3   BANK4   BANK5   BANK6   BANK7   BANK8   BANK9  BANK10  BANK1
      +1  BANK12  BANK13  BANK14  BANK15
  1319 ;;      Params:         1       0       0       0       0       0       0       0       0       0       0       0       
      +0       0       0       0       0
  1320 ;;      Locals:         2       0       0       0       0       0       0       0       0       0       0       0       
      +0       0       0       0       0
  1321 ;;      Temps:          1       0       0       0       0       0       0       0       0       0       0       0       
      +0       0       0       0       0
  1322 ;;      Totals:         4       0       0       0       0       0       0       0       0       0       0       0       
      +0       0       0       0       0
  1323 ;;Total ram usage:        4 bytes
  1324 ;; Hardware stack levels used: 1
  1325 ;; Hardware stack levels required when called: 5
  1326 ;; This function calls:
  1327 ;;		_gpio_pin_intialize
  1328 ;;		_lcd_4bit_send_command
  1329 ;; This function is called by:
  1330 ;;		_ecu_layer_intialize
  1331 ;; This function uses a non-reentrant model
  1332 ;;
  1333                           
  1334                           	psect	text4
  1335   000B5A                     __ptext4:
  1336                           	callstack 0
  1337   000B5A                     _lcd_4bit_intialize:
  1338                           	callstack 23
  1339   000B5A                     
  1340                           ;ECU_Layer/LCD/ecu_lcd.c: 135:     uint8 data_counter = 0;
  1341   000B5A  0E00               	movlw	0
  1342   000B5C  6E43               	movwf	lcd_4bit_intialize@data_counter^0,c
  1343                           
  1344                           ;ECU_Layer/LCD/ecu_lcd.c: 136:     if(((void*)0) == _lcd){
  1345   000B5E  5040               	movf	lcd_4bit_intialize@_lcd^0,w,c
  1346   000B60  A4D8               	btfss	status,2,c
  1347   000B62  EFB5  F005         	goto	u3191
  1348   000B66  EFB7  F005         	goto	u3190
  1349   000B6A                     u3191:
  1350   000B6A  EFB9  F005         	goto	l5108
  1351   000B6E                     u3190:
  1352   000B6E                     
  1353                           ;ECU_Layer/LCD/ecu_lcd.c: 138:     }
  1354   000B6E  EF1B  F006         	goto	l108
  1355   000B72                     l5108:
  1356                           
  1357                           ;ECU_Layer/LCD/ecu_lcd.c: 140:         status = gpio_pin_intialize(&(_lcd->lcd_rs));
  1358   000B72  C040  F03A         	movff	lcd_4bit_intialize@_lcd,gpio_pin_intialize@_pin_config
  1359   000B76  EC4D  F008         	call	_gpio_pin_intialize	;wreg free
  1360   000B7A  6E42               	movwf	lcd_4bit_intialize@status^0,c
  1361                           
  1362                           ;ECU_Layer/LCD/ecu_lcd.c: 141:         status = gpio_pin_intialize(&(_lcd->lcd_en));
  1363   000B7C  2840               	incf	lcd_4bit_intialize@_lcd^0,w,c
  1364   000B7E  6E3A               	movwf	gpio_pin_intialize@_pin_config^0,c
  1365   000B80  EC4D  F008         	call	_gpio_pin_intialize	;wreg free
  1366   000B84  6E42               	movwf	lcd_4bit_intialize@status^0,c
  1367   000B86                     
  1368                           ;ECU_Layer/LCD/ecu_lcd.c: 142:         for(data_counter = 0; data_counter<4; data_counte
      +                          r++){
  1369   000B86  0E00               	movlw	0
  1370   000B88  6E43               	movwf	lcd_4bit_intialize@data_counter^0,c
  1371   000B8A                     l5116:
  1372   000B8A  5040               	movf	lcd_4bit_intialize@_lcd^0,w,c
  1373   000B8C  2443               	addwf	lcd_4bit_intialize@data_counter^0,w,c
  1374   000B8E  0F02               	addlw	2
  1375   000B90  6E3A               	movwf	gpio_pin_intialize@_pin_config^0,c
  1376   000B92  EC4D  F008         	call	_gpio_pin_intialize	;wreg free
  1377   000B96                     
  1378                           ;ECU_Layer/LCD/ecu_lcd.c: 144:         }
  1379   000B96  2A43               	incf	lcd_4bit_intialize@data_counter^0,f,c
  1380   000B98  0E03               	movlw	3
  1381   000B9A  6443               	cpfsgt	lcd_4bit_intialize@data_counter^0,c
  1382   000B9C  EFD2  F005         	goto	u3201
  1383   000BA0  EFD4  F005         	goto	u3200
  1384   000BA4                     u3201:
  1385   000BA4  EFC5  F005         	goto	l5116
  1386   000BA8                     u3200:
  1387   000BA8                     
  1388                           ;ECU_Layer/LCD/ecu_lcd.c: 145:         _delay((unsigned long)((20)*(8000000/4000.0)));
  1389   000BA8  0E34               	movlw	52
  1390   000BAA  6E41               	movwf	??_lcd_4bit_intialize^0,c
  1391   000BAC  0EF2               	movlw	242
  1392   000BAE                     u3787:
  1393   000BAE  2EE8               	decfsz	wreg,f,c
  1394   000BB0  D7FE               	bra	u3787
  1395   000BB2  2E41               	decfsz	??_lcd_4bit_intialize^0,f,c
  1396   000BB4  D7FC               	bra	u3787
  1397   000BB6  C040  F03D         	movff	lcd_4bit_intialize@_lcd,lcd_4bit_send_command@_lcd
  1398   000BBA  0E38               	movlw	56
  1399   000BBC  6E3E               	movwf	lcd_4bit_send_command@command^0,c
  1400   000BBE  ECAB  F008         	call	_lcd_4bit_send_command	;wreg free
  1401   000BC2                     
  1402                           ;ECU_Layer/LCD/ecu_lcd.c: 147:         _delay((unsigned long)((5)*(8000000/4000.0)));
  1403   000BC2  0E0D               	movlw	13
  1404   000BC4  6E41               	movwf	??_lcd_4bit_intialize^0,c
  1405   000BC6  0EFC               	movlw	252
  1406   000BC8                     u3797:
  1407   000BC8  2EE8               	decfsz	wreg,f,c
  1408   000BCA  D7FE               	bra	u3797
  1409   000BCC  2E41               	decfsz	??_lcd_4bit_intialize^0,f,c
  1410   000BCE  D7FC               	bra	u3797
  1411   000BD0  C040  F03D         	movff	lcd_4bit_intialize@_lcd,lcd_4bit_send_command@_lcd
  1412   000BD4  0E38               	movlw	56
  1413   000BD6  6E3E               	movwf	lcd_4bit_send_command@command^0,c
  1414   000BD8  ECAB  F008         	call	_lcd_4bit_send_command	;wreg free
  1415   000BDC                     
  1416                           ;ECU_Layer/LCD/ecu_lcd.c: 149:         _delay((unsigned long)((150)*(8000000/4000000.0))
      +                          );
  1417   000BDC  0E64               	movlw	100
  1418   000BDE                     u3807:
  1419   000BDE  2EE8               	decfsz	wreg,f,c
  1420   000BE0  D7FE               	bra	u3807
  1421   000BE2  C040  F03D         	movff	lcd_4bit_intialize@_lcd,lcd_4bit_send_command@_lcd
  1422   000BE6  0E38               	movlw	56
  1423   000BE8  6E3E               	movwf	lcd_4bit_send_command@command^0,c
  1424   000BEA  ECAB  F008         	call	_lcd_4bit_send_command	;wreg free
  1425   000BEE  C040  F03D         	movff	lcd_4bit_intialize@_lcd,lcd_4bit_send_command@_lcd
  1426   000BF2  0E01               	movlw	1
  1427   000BF4  6E3E               	movwf	lcd_4bit_send_command@command^0,c
  1428   000BF6  ECAB  F008         	call	_lcd_4bit_send_command	;wreg free
  1429   000BFA  C040  F03D         	movff	lcd_4bit_intialize@_lcd,lcd_4bit_send_command@_lcd
  1430   000BFE  0E02               	movlw	2
  1431   000C00  6E3E               	movwf	lcd_4bit_send_command@command^0,c
  1432   000C02  ECAB  F008         	call	_lcd_4bit_send_command	;wreg free
  1433   000C06  C040  F03D         	movff	lcd_4bit_intialize@_lcd,lcd_4bit_send_command@_lcd
  1434   000C0A  0E06               	movlw	6
  1435   000C0C  6E3E               	movwf	lcd_4bit_send_command@command^0,c
  1436   000C0E  ECAB  F008         	call	_lcd_4bit_send_command	;wreg free
  1437   000C12  C040  F03D         	movff	lcd_4bit_intialize@_lcd,lcd_4bit_send_command@_lcd
  1438   000C16  0E0C               	movlw	12
  1439   000C18  6E3E               	movwf	lcd_4bit_send_command@command^0,c
  1440   000C1A  ECAB  F008         	call	_lcd_4bit_send_command	;wreg free
  1441   000C1E  C040  F03D         	movff	lcd_4bit_intialize@_lcd,lcd_4bit_send_command@_lcd
  1442   000C22  0E28               	movlw	40
  1443   000C24  6E3E               	movwf	lcd_4bit_send_command@command^0,c
  1444   000C26  ECAB  F008         	call	_lcd_4bit_send_command	;wreg free
  1445   000C2A  C040  F03D         	movff	lcd_4bit_intialize@_lcd,lcd_4bit_send_command@_lcd
  1446   000C2E  0E80               	movlw	128
  1447   000C30  6E3E               	movwf	lcd_4bit_send_command@command^0,c
  1448   000C32  ECAB  F008         	call	_lcd_4bit_send_command	;wreg free
  1449   000C36                     l108:
  1450   000C36  0012               	return		;funcret
  1451   000C38                     __end_of_lcd_4bit_intialize:
  1452                           	callstack 0
  1453                           
  1454 ;; *************** function _keypad_intialize *****************
  1455 ;; Defined at:
  1456 ;;		line 22 in file "ECU_Layer/Keypad/keypad.c"
  1457 ;; Parameters:    Size  Location     Type
  1458 ;;  _keypad         1   11[COMRAM] PTR const struct .
  1459 ;;		 -> keypad_1(8), 
  1460 ;; Auto vars:     Size  Location     Type
  1461 ;;  l_columns_co    1   13[COMRAM] unsigned char 
  1462 ;;  l_rows_count    1   12[COMRAM] unsigned char 
  1463 ;;  status          1    0        unsigned char 
  1464 ;; Return value:  Size  Location     Type
  1465 ;;                  1    wreg      unsigned char 
  1466 ;; Registers used:
  1467 ;;		wreg, fsr2l, fsr2h, status,2, status,0, prodl, prodh, cstack
  1468 ;; Tracked objects:
  1469 ;;		On entry : 0/0
  1470 ;;		On exit  : 0/0
  1471 ;;		Unchanged: 0/0
  1472 ;; Data sizes:     COMRAM   BANK0   BANK1   BANK2   BANK3   BANK4   BANK5   BANK6   BANK7   BANK8   BANK9  BANK10  BANK1
      +1  BANK12  BANK13  BANK14  BANK15
  1473 ;;      Params:         1       0       0       0       0       0       0       0       0       0       0       0       
      +0       0       0       0       0
  1474 ;;      Locals:         2       0       0       0       0       0       0       0       0       0       0       0       
      +0       0       0       0       0
  1475 ;;      Temps:          0       0       0       0       0       0       0       0       0       0       0       0       
      +0       0       0       0       0
  1476 ;;      Totals:         3       0       0       0       0       0       0       0       0       0       0       0       
      +0       0       0       0       0
  1477 ;;Total ram usage:        3 bytes
  1478 ;; Hardware stack levels used: 1
  1479 ;; Hardware stack levels required when called: 4
  1480 ;; This function calls:
  1481 ;;		_gpio_pin_direction_intialize
  1482 ;;		_gpio_pin_intialize
  1483 ;; This function is called by:
  1484 ;;		_ecu_layer_intialize
  1485 ;; This function uses a non-reentrant model
  1486 ;;
  1487                           
  1488                           	psect	text5
  1489   000FDA                     __ptext5:
  1490                           	callstack 0
  1491   000FDA                     _keypad_intialize:
  1492                           	callstack 24
  1493   000FDA                     
  1494                           ;ECU_Layer/Keypad/keypad.c: 24:     uint8 l_rows_counter = 0, l_columns_counter = 0;
  1495   000FDA  0E00               	movlw	0
  1496   000FDC  6E3E               	movwf	keypad_intialize@l_rows_counter^0,c
  1497   000FDE  0E00               	movlw	0
  1498   000FE0  6E3F               	movwf	keypad_intialize@l_columns_counter^0,c
  1499                           
  1500                           ;ECU_Layer/Keypad/keypad.c: 25:     if(((void*)0) == _keypad){
  1501   000FE2  503D               	movf	keypad_intialize@_keypad^0,w,c
  1502   000FE4  A4D8               	btfss	status,2,c
  1503   000FE6  EFF7  F007         	goto	u3101
  1504   000FEA  EFF9  F007         	goto	u3100
  1505   000FEE                     u3101:
  1506   000FEE  EFFB  F007         	goto	l5034
  1507   000FF2                     u3100:
  1508   000FF2                     
  1509                           ;ECU_Layer/Keypad/keypad.c: 27:     }
  1510   000FF2  EF1C  F008         	goto	l19
  1511   000FF6                     l5034:
  1512                           
  1513                           ;ECU_Layer/Keypad/keypad.c: 29:         for(l_rows_counter = 0; l_rows_counter<4; l_rows
      +                          _counter++){
  1514   000FF6  0E00               	movlw	0
  1515   000FF8  6E3E               	movwf	keypad_intialize@l_rows_counter^0,c
  1516   000FFA                     l5040:
  1517   000FFA  503D               	movf	keypad_intialize@_keypad^0,w,c
  1518   000FFC  243E               	addwf	keypad_intialize@l_rows_counter^0,w,c
  1519   000FFE  6E3A               	movwf	gpio_pin_intialize@_pin_config^0,c
  1520   001000  EC4D  F008         	call	_gpio_pin_intialize	;wreg free
  1521   001004                     
  1522                           ;ECU_Layer/Keypad/keypad.c: 31:         }
  1523   001004  2A3E               	incf	keypad_intialize@l_rows_counter^0,f,c
  1524   001006  0E03               	movlw	3
  1525   001008  643E               	cpfsgt	keypad_intialize@l_rows_counter^0,c
  1526   00100A  EF09  F008         	goto	u3111
  1527   00100E  EF0B  F008         	goto	u3110
  1528   001012                     u3111:
  1529   001012  EFFD  F007         	goto	l5040
  1530   001016                     u3110:
  1531   001016                     
  1532                           ;ECU_Layer/Keypad/keypad.c: 32:         for(l_columns_counter = 0; l_columns_counter<4; 
      +                          l_columns_counter++){
  1533   001016  0E00               	movlw	0
  1534   001018  6E3F               	movwf	keypad_intialize@l_columns_counter^0,c
  1535   00101A                     l5052:
  1536   00101A  503D               	movf	keypad_intialize@_keypad^0,w,c
  1537   00101C  243F               	addwf	keypad_intialize@l_columns_counter^0,w,c
  1538   00101E  0F04               	addlw	4
  1539   001020  6E32               	movwf	gpio_pin_direction_intialize@_pin_config^0,c
  1540   001022  EC21  F004         	call	_gpio_pin_direction_intialize	;wreg free
  1541   001026                     
  1542                           ;ECU_Layer/Keypad/keypad.c: 34:         }
  1543   001026  2A3F               	incf	keypad_intialize@l_columns_counter^0,f,c
  1544   001028  0E03               	movlw	3
  1545   00102A  643F               	cpfsgt	keypad_intialize@l_columns_counter^0,c
  1546   00102C  EF1A  F008         	goto	u3121
  1547   001030  EF1C  F008         	goto	u3120
  1548   001034                     u3121:
  1549   001034  EF0D  F008         	goto	l5052
  1550   001038                     u3120:
  1551   001038                     l19:
  1552   001038  0012               	return		;funcret
  1553   00103A                     __end_of_keypad_intialize:
  1554                           	callstack 0
  1555                           
  1556 ;; *************** function _gpio_pin_intialize *****************
  1557 ;; Defined at:
  1558 ;;		line 132 in file "MCAL_Layer/GPIO/hal_gpio.c"
  1559 ;; Parameters:    Size  Location     Type
  1560 ;;  _pin_config     1    8[COMRAM] PTR const struct .
  1561 ;;		 -> keypad_1$keypad_rows_pin(4), keypad_1(8), LCD_1$lcd_data(4), LCD_1(6), 
  1562 ;;		 -> led_initialize@pin_obj(1), 
  1563 ;; Auto vars:     Size  Location     Type
  1564 ;;  status          1   10[COMRAM] unsigned char 
  1565 ;; Return value:  Size  Location     Type
  1566 ;;                  1    wreg      unsigned char 
  1567 ;; Registers used:
  1568 ;;		wreg, fsr2l, fsr2h, status,2, status,0, prodl, prodh, cstack
  1569 ;; Tracked objects:
  1570 ;;		On entry : 0/0
  1571 ;;		On exit  : 0/0
  1572 ;;		Unchanged: 0/0
  1573 ;; Data sizes:     COMRAM   BANK0   BANK1   BANK2   BANK3   BANK4   BANK5   BANK6   BANK7   BANK8   BANK9  BANK10  BANK1
      +1  BANK12  BANK13  BANK14  BANK15
  1574 ;;      Params:         1       0       0       0       0       0       0       0       0       0       0       0       
      +0       0       0       0       0
  1575 ;;      Locals:         1       0       0       0       0       0       0       0       0       0       0       0       
      +0       0       0       0       0
  1576 ;;      Temps:          1       0       0       0       0       0       0       0       0       0       0       0       
      +0       0       0       0       0
  1577 ;;      Totals:         3       0       0       0       0       0       0       0       0       0       0       0       
      +0       0       0       0       0
  1578 ;;Total ram usage:        3 bytes
  1579 ;; Hardware stack levels used: 1
  1580 ;; Hardware stack levels required when called: 3
  1581 ;; This function calls:
  1582 ;;		_gpio_pin_direction_intialize
  1583 ;;		_gpio_pin_write_logic
  1584 ;; This function is called by:
  1585 ;;		_keypad_intialize
  1586 ;;		_lcd_4bit_intialize
  1587 ;;		_led_initialize
  1588 ;;		_lcd_8bit_intialize
  1589 ;; This function uses a non-reentrant model
  1590 ;;
  1591                           
  1592                           	psect	text6
  1593   00109A                     __ptext6:
  1594                           	callstack 0
  1595   00109A                     _gpio_pin_intialize:
  1596                           	callstack 24
  1597   00109A                     
  1598                           ;MCAL_Layer/GPIO/hal_gpio.c: 133:     Std_ReturnType status = (Std_ReturnType)0X01;
  1599   00109A  0E01               	movlw	1
  1600   00109C  6E3C               	movwf	gpio_pin_intialize@status^0,c
  1601                           
  1602                           ;MCAL_Layer/GPIO/hal_gpio.c: 134:     if(((void*)0) == _pin_config || _pin_config->pin >
      +                           8 -1){
  1603   00109E  503A               	movf	gpio_pin_intialize@_pin_config^0,w,c
  1604   0010A0  B4D8               	btfsc	status,2,c
  1605   0010A2  EF55  F008         	goto	u3001
  1606   0010A6  EF57  F008         	goto	u3000
  1607   0010AA                     u3001:
  1608   0010AA  EF67  F008         	goto	l4982
  1609   0010AE                     u3000:
  1610   0010AE  503A               	movf	gpio_pin_intialize@_pin_config^0,w,c
  1611   0010B0  6ED9               	movwf	fsr2l,c
  1612   0010B2  6ADA               	clrf	fsr2h,c
  1613   0010B4  30DF               	rrcf	223,w,c
  1614   0010B6  32E8               	rrcf	wreg,f,c
  1615   0010B8  32E8               	rrcf	wreg,f,c
  1616   0010BA  0B07               	andlw	7
  1617   0010BC  6E3B               	movwf	??_gpio_pin_intialize^0,c
  1618   0010BE  0E07               	movlw	7
  1619   0010C0  643B               	cpfsgt	??_gpio_pin_intialize^0,c
  1620   0010C2  EF65  F008         	goto	u3011
  1621   0010C6  EF67  F008         	goto	u3010
  1622   0010CA                     u3011:
  1623   0010CA  EF6B  F008         	goto	l4984
  1624   0010CE                     u3010:
  1625   0010CE                     l4982:
  1626                           
  1627                           ;MCAL_Layer/GPIO/hal_gpio.c: 135:         status = (Std_ReturnType)0X00;
  1628   0010CE  0E00               	movlw	0
  1629   0010D0  6E3C               	movwf	gpio_pin_intialize@status^0,c
  1630                           
  1631                           ;MCAL_Layer/GPIO/hal_gpio.c: 136:     }
  1632   0010D2  EF7A  F008         	goto	l4986
  1633   0010D6                     l4984:
  1634                           
  1635                           ;MCAL_Layer/GPIO/hal_gpio.c: 138:        gpio_pin_direction_intialize(_pin_config);
  1636   0010D6  C03A  F032         	movff	gpio_pin_intialize@_pin_config,gpio_pin_direction_intialize@_pin_config
  1637   0010DA  EC21  F004         	call	_gpio_pin_direction_intialize	;wreg free
  1638                           
  1639                           ;MCAL_Layer/GPIO/hal_gpio.c: 139:        gpio_pin_write_logic(_pin_config, _pin_config->
      +                          logic);
  1640   0010DE  C03A  F032         	movff	gpio_pin_intialize@_pin_config,gpio_pin_write_logic@_pin_config
  1641   0010E2  503A               	movf	gpio_pin_intialize@_pin_config^0,w,c
  1642   0010E4  6ED9               	movwf	fsr2l,c
  1643   0010E6  6ADA               	clrf	fsr2h,c
  1644   0010E8  0E00               	movlw	0
  1645   0010EA  BEDF               	btfsc	indf2,7,c
  1646   0010EC  0E01               	movlw	1
  1647   0010EE  6E33               	movwf	gpio_pin_write_logic@logic^0,c
  1648   0010F0  ECB4  F004         	call	_gpio_pin_write_logic	;wreg free
  1649   0010F4                     l4986:
  1650                           
  1651                           ;MCAL_Layer/GPIO/hal_gpio.c: 141:     return status;
  1652   0010F4  503C               	movf	gpio_pin_intialize@status^0,w,c
  1653   0010F6  0012               	return		;funcret
  1654   0010F8                     __end_of_gpio_pin_intialize:
  1655                           	callstack 0
  1656                           
  1657 ;; *************** function _gpio_pin_direction_intialize *****************
  1658 ;; Defined at:
  1659 ;;		line 22 in file "MCAL_Layer/GPIO/hal_gpio.c"
  1660 ;; Parameters:    Size  Location     Type
  1661 ;;  _pin_config     1    0[COMRAM] PTR const struct .
  1662 ;;		 -> keypad_1$keypad_columns_pin(4), keypad_1$keypad_rows_pin(4), keypad_1(8), LCD_1$lcd_data(4), 
  1663 ;;		 -> LCD_1(6), led_initialize@pin_obj(1), 
  1664 ;; Auto vars:     Size  Location     Type
  1665 ;;  status          1    6[COMRAM] unsigned char 
  1666 ;; Return value:  Size  Location     Type
  1667 ;;                  1    wreg      unsigned char 
  1668 ;; Registers used:
  1669 ;;		wreg, fsr2l, fsr2h, status,2, status,0, prodl, prodh
  1670 ;; Tracked objects:
  1671 ;;		On entry : 0/0
  1672 ;;		On exit  : 0/0
  1673 ;;		Unchanged: 0/0
  1674 ;; Data sizes:     COMRAM   BANK0   BANK1   BANK2   BANK3   BANK4   BANK5   BANK6   BANK7   BANK8   BANK9  BANK10  BANK1
      +1  BANK12  BANK13  BANK14  BANK15
  1675 ;;      Params:         1       0       0       0       0       0       0       0       0       0       0       0       
      +0       0       0       0       0
  1676 ;;      Locals:         1       0       0       0       0       0       0       0       0       0       0       0       
      +0       0       0       0       0
  1677 ;;      Temps:          5       0       0       0       0       0       0       0       0       0       0       0       
      +0       0       0       0       0
  1678 ;;      Totals:         7       0       0       0       0       0       0       0       0       0       0       0       
      +0       0       0       0       0
  1679 ;;Total ram usage:        7 bytes
  1680 ;; Hardware stack levels used: 1
  1681 ;; Hardware stack levels required when called: 2
  1682 ;; This function calls:
  1683 ;;		Nothing
  1684 ;; This function is called by:
  1685 ;;		_keypad_intialize
  1686 ;;		_gpio_pin_intialize
  1687 ;;		_Interrupt_INTx_pin
  1688 ;;		_Interrupt_RBx_pin
  1689 ;; This function uses a non-reentrant model
  1690 ;;
  1691                           
  1692                           	psect	text7
  1693   000842                     __ptext7:
  1694                           	callstack 0
  1695   000842                     _gpio_pin_direction_intialize:
  1696                           	callstack 24
  1697   000842                     
  1698                           ;MCAL_Layer/GPIO/hal_gpio.c: 23:     Std_ReturnType status = (Std_ReturnType)0X01;
  1699   000842  0E01               	movlw	1
  1700   000844  6E38               	movwf	gpio_pin_direction_intialize@status^0,c
  1701                           
  1702                           ;MCAL_Layer/GPIO/hal_gpio.c: 24:     if(((void*)0) == _pin_config || _pin_config->pin > 
      +                          8 -1){
  1703   000846  5032               	movf	gpio_pin_direction_intialize@_pin_config^0,w,c
  1704   000848  B4D8               	btfsc	status,2,c
  1705   00084A  EF29  F004         	goto	u2931
  1706   00084E  EF2B  F004         	goto	u2930
  1707   000852                     u2931:
  1708   000852  EF3B  F004         	goto	l4932
  1709   000856                     u2930:
  1710   000856  5032               	movf	gpio_pin_direction_intialize@_pin_config^0,w,c
  1711   000858  6ED9               	movwf	fsr2l,c
  1712   00085A  6ADA               	clrf	fsr2h,c
  1713   00085C  30DF               	rrcf	223,w,c
  1714   00085E  32E8               	rrcf	wreg,f,c
  1715   000860  32E8               	rrcf	wreg,f,c
  1716   000862  0B07               	andlw	7
  1717   000864  6E33               	movwf	??_gpio_pin_direction_intialize^0,c
  1718   000866  0E07               	movlw	7
  1719   000868  6433               	cpfsgt	??_gpio_pin_direction_intialize^0,c
  1720   00086A  EF39  F004         	goto	u2941
  1721   00086E  EF3B  F004         	goto	u2940
  1722   000872                     u2941:
  1723   000872  EF92  F004         	goto	l4940
  1724   000876                     u2940:
  1725   000876                     l4932:
  1726                           
  1727                           ;MCAL_Layer/GPIO/hal_gpio.c: 25:         status = (Std_ReturnType)0X00;
  1728   000876  0E00               	movlw	0
  1729   000878  6E38               	movwf	gpio_pin_direction_intialize@status^0,c
  1730                           
  1731                           ;MCAL_Layer/GPIO/hal_gpio.c: 26:     }
  1732   00087A  EFB2  F004         	goto	l4942
  1733   00087E                     l4934:
  1734                           
  1735                           ;MCAL_Layer/GPIO/hal_gpio.c: 30:                 (*tris_register[_pin_config->port] &= ~
      +                          ((uint8)1 << _pin_config->pin));
  1736   00087E  5032               	movf	gpio_pin_direction_intialize@_pin_config^0,w,c
  1737   000880  6ED9               	movwf	fsr2l,c
  1738   000882  6ADA               	clrf	fsr2h,c
  1739   000884  30DF               	rrcf	223,w,c
  1740   000886  32E8               	rrcf	wreg,f,c
  1741   000888  32E8               	rrcf	wreg,f,c
  1742   00088A  0B07               	andlw	7
  1743   00088C  6E33               	movwf	??_gpio_pin_direction_intialize^0,c
  1744   00088E  0E01               	movlw	1
  1745   000890  6E34               	movwf	(??_gpio_pin_direction_intialize+1)^0,c
  1746   000892  2A33               	incf	??_gpio_pin_direction_intialize^0,f,c
  1747   000894  EF4E  F004         	goto	u2954
  1748   000898                     u2955:
  1749   000898  90D8               	bcf	status,0,c
  1750   00089A  3634               	rlcf	(??_gpio_pin_direction_intialize+1)^0,f,c
  1751   00089C                     u2954:
  1752   00089C  2E33               	decfsz	??_gpio_pin_direction_intialize^0,f,c
  1753   00089E  EF4C  F004         	goto	u2955
  1754   0008A2  5034               	movf	(??_gpio_pin_direction_intialize+1)^0,w,c
  1755   0008A4  0AFF               	xorlw	255
  1756   0008A6  6E35               	movwf	(??_gpio_pin_direction_intialize+2)^0,c
  1757   0008A8  5032               	movf	gpio_pin_direction_intialize@_pin_config^0,w,c
  1758   0008AA  6ED9               	movwf	fsr2l,c
  1759   0008AC  6ADA               	clrf	fsr2h,c
  1760   0008AE  50DF               	movf	223,w,c
  1761   0008B0  0B07               	andlw	7
  1762   0008B2  0D02               	mullw	2
  1763   0008B4  50F3               	movf	243,w,c
  1764   0008B6  0F65               	addlw	low _tris_register
  1765   0008B8  6ED9               	movwf	fsr2l,c
  1766   0008BA  6ADA               	clrf	fsr2h,c
  1767   0008BC  CFDE F036          	movff	postinc2,??_gpio_pin_direction_intialize+3
  1768   0008C0  CFDD F037          	movff	postdec2,??_gpio_pin_direction_intialize+4
  1769   0008C4  C036  FFD9         	movff	??_gpio_pin_direction_intialize+3,fsr2l
  1770   0008C8  C037  FFDA         	movff	??_gpio_pin_direction_intialize+4,fsr2h
  1771   0008CC  5035               	movf	(??_gpio_pin_direction_intialize+2)^0,w,c
  1772   0008CE  16DF               	andwf	indf2,f,c
  1773                           
  1774                           ;MCAL_Layer/GPIO/hal_gpio.c: 31:             break;
  1775   0008D0  EFB2  F004         	goto	l4942
  1776   0008D4                     l4936:
  1777                           
  1778                           ;MCAL_Layer/GPIO/hal_gpio.c: 33:                 (*tris_register[_pin_config->port] |= (
      +                          (uint8)1 << _pin_config->pin));
  1779   0008D4  5032               	movf	gpio_pin_direction_intialize@_pin_config^0,w,c
  1780   0008D6  6ED9               	movwf	fsr2l,c
  1781   0008D8  6ADA               	clrf	fsr2h,c
  1782   0008DA  30DF               	rrcf	223,w,c
  1783   0008DC  32E8               	rrcf	wreg,f,c
  1784   0008DE  32E8               	rrcf	wreg,f,c
  1785   0008E0  0B07               	andlw	7
  1786   0008E2  6E33               	movwf	??_gpio_pin_direction_intialize^0,c
  1787   0008E4  0E01               	movlw	1
  1788   0008E6  6E34               	movwf	(??_gpio_pin_direction_intialize+1)^0,c
  1789   0008E8  2A33               	incf	??_gpio_pin_direction_intialize^0,f,c
  1790   0008EA  EF79  F004         	goto	u2964
  1791   0008EE                     u2965:
  1792   0008EE  90D8               	bcf	status,0,c
  1793   0008F0  3634               	rlcf	(??_gpio_pin_direction_intialize+1)^0,f,c
  1794   0008F2                     u2964:
  1795   0008F2  2E33               	decfsz	??_gpio_pin_direction_intialize^0,f,c
  1796   0008F4  EF77  F004         	goto	u2965
  1797   0008F8  5032               	movf	gpio_pin_direction_intialize@_pin_config^0,w,c
  1798   0008FA  6ED9               	movwf	fsr2l,c
  1799   0008FC  6ADA               	clrf	fsr2h,c
  1800   0008FE  50DF               	movf	223,w,c
  1801   000900  0B07               	andlw	7
  1802   000902  0D02               	mullw	2
  1803   000904  50F3               	movf	243,w,c
  1804   000906  0F65               	addlw	low _tris_register
  1805   000908  6ED9               	movwf	fsr2l,c
  1806   00090A  6ADA               	clrf	fsr2h,c
  1807   00090C  CFDE F035          	movff	postinc2,??_gpio_pin_direction_intialize+2
  1808   000910  CFDD F036          	movff	postdec2,??_gpio_pin_direction_intialize+3
  1809   000914  C035  FFD9         	movff	??_gpio_pin_direction_intialize+2,fsr2l
  1810   000918  C036  FFDA         	movff	??_gpio_pin_direction_intialize+3,fsr2h
  1811   00091C  5034               	movf	(??_gpio_pin_direction_intialize+1)^0,w,c
  1812   00091E  12DF               	iorwf	indf2,f,c
  1813                           
  1814                           ;MCAL_Layer/GPIO/hal_gpio.c: 34:             break;
  1815   000920  EFB2  F004         	goto	l4942
  1816   000924                     l4940:
  1817   000924  5032               	movf	gpio_pin_direction_intialize@_pin_config^0,w,c
  1818   000926  6ED9               	movwf	fsr2l,c
  1819   000928  6ADA               	clrf	fsr2h,c
  1820   00092A  BCDF               	btfsc	indf2,6,c
  1821   00092C  EF9A  F004         	goto	u2971
  1822   000930  EF9D  F004         	goto	u2970
  1823   000934                     u2971:
  1824   000934  0E01               	movlw	1
  1825   000936  EF9E  F004         	goto	u2980
  1826   00093A                     u2970:
  1827   00093A  0E00               	movlw	0
  1828   00093C                     u2980:
  1829   00093C  6E33               	movwf	??_gpio_pin_direction_intialize^0,c
  1830   00093E  6A34               	clrf	(??_gpio_pin_direction_intialize+1)^0,c
  1831                           
  1832                           ; Switch on 2 bytes has been partitioned into a top level switch of size 1, and 1 sub-sw
      +                          itches
  1833                           ; Switch size 1, requested type "simple"
  1834                           ; Number of cases is 1, Range of values is 0 to 0
  1835                           ; switch strategies available:
  1836                           ; Name         Instructions Cycles
  1837                           ; simple_byte            4     3 (average)
  1838                           ;	Chosen strategy is simple_byte
  1839   000940  5034               	movf	(??_gpio_pin_direction_intialize+1)^0,w,c
  1840   000942  0A00               	xorlw	0	; case 0
  1841   000944  B4D8               	btfsc	status,2,c
  1842   000946  EFA7  F004         	goto	l5928
  1843   00094A  EF3B  F004         	goto	l4932
  1844   00094E                     l5928:
  1845                           
  1846                           ; Switch size 1, requested type "simple"
  1847                           ; Number of cases is 2, Range of values is 0 to 1
  1848                           ; switch strategies available:
  1849                           ; Name         Instructions Cycles
  1850                           ; simple_byte            7     4 (average)
  1851                           ;	Chosen strategy is simple_byte
  1852   00094E  5033               	movf	??_gpio_pin_direction_intialize^0,w,c
  1853   000950  0A00               	xorlw	0	; case 0
  1854   000952  B4D8               	btfsc	status,2,c
  1855   000954  EF3F  F004         	goto	l4934
  1856   000958  0A01               	xorlw	1	; case 1
  1857   00095A  B4D8               	btfsc	status,2,c
  1858   00095C  EF6A  F004         	goto	l4936
  1859   000960  EF3B  F004         	goto	l4932
  1860   000964                     l4942:
  1861                           
  1862                           ;MCAL_Layer/GPIO/hal_gpio.c: 38:     return status;
  1863   000964  5038               	movf	gpio_pin_direction_intialize@status^0,w,c
  1864   000966  0012               	return		;funcret
  1865   000968                     __end_of_gpio_pin_direction_intialize:
  1866                           	callstack 0
  1867                           
  1868 ;; *************** function _Welcome *****************
  1869 ;; Defined at:
  1870 ;;		line 28 in file "main.c"
  1871 ;; Parameters:    Size  Location     Type
  1872 ;;		None
  1873 ;; Auto vars:     Size  Location     Type
  1874 ;;		None
  1875 ;; Return value:  Size  Location     Type
  1876 ;;                  1    wreg      void 
  1877 ;; Registers used:
  1878 ;;		wreg, fsr2l, fsr2h, status,2, status,0, tblptrl, tblptrh, tblptru, prodl, prodh, cstack
  1879 ;; Tracked objects:
  1880 ;;		On entry : 0/0
  1881 ;;		On exit  : 0/0
  1882 ;;		Unchanged: 0/0
  1883 ;; Data sizes:     COMRAM   BANK0   BANK1   BANK2   BANK3   BANK4   BANK5   BANK6   BANK7   BANK8   BANK9  BANK10  BANK1
      +1  BANK12  BANK13  BANK14  BANK15
  1884 ;;      Params:         0       0       0       0       0       0       0       0       0       0       0       0       
      +0       0       0       0       0
  1885 ;;      Locals:         0       0       0       0       0       0       0       0       0       0       0       0       
      +0       0       0       0       0
  1886 ;;      Temps:          0       0       0       0       0       0       0       0       0       0       0       0       
      +0       0       0       0       0
  1887 ;;      Totals:         0       0       0       0       0       0       0       0       0       0       0       0       
      +0       0       0       0       0
  1888 ;;Total ram usage:        0 bytes
  1889 ;; Hardware stack levels used: 1
  1890 ;; Hardware stack levels required when called: 7
  1891 ;; This function calls:
  1892 ;;		_delay_ms
  1893 ;;		_lcd_4bit_send_command
  1894 ;;		_lcd_4bit_send_string_pos
  1895 ;; This function is called by:
  1896 ;;		_main
  1897 ;; This function uses a non-reentrant model
  1898 ;;
  1899                           
  1900                           	psect	text8
  1901   00125C                     __ptext8:
  1902                           	callstack 0
  1903   00125C                     _Welcome:
  1904                           	callstack 23
  1905   00125C                     
  1906                           ;main.c: 29:     lcd_4bit_send_command(&LCD_1, 0x01);
  1907   00125C  0E73               	movlw	low _LCD_1
  1908   00125E  6E3D               	movwf	lcd_4bit_send_command@_lcd^0,c
  1909   001260  0E01               	movlw	1
  1910   001262  6E3E               	movwf	lcd_4bit_send_command@command^0,c
  1911   001264  ECAB  F008         	call	_lcd_4bit_send_command	;wreg free
  1912   001268                     
  1913                           ;main.c: 30:     lcd_4bit_send_string_pos(&LCD_1 ,1 ,1 ,"Welcome to Smart");
  1914   001268  0E73               	movlw	low _LCD_1
  1915   00126A  6E46               	movwf	lcd_4bit_send_string_pos@_lcd^0,c
  1916   00126C  0E01               	movlw	1
  1917   00126E  6E47               	movwf	lcd_4bit_send_string_pos@row^0,c
  1918   001270  0E01               	movlw	1
  1919   001272  6E48               	movwf	lcd_4bit_send_string_pos@column^0,c
  1920   001274  0EFE               	movlw	low STR_4
  1921   001276  6E49               	movwf	lcd_4bit_send_string_pos@str^0,c
  1922   001278  0EFE               	movlw	high STR_4
  1923   00127A  6E4A               	movwf	(lcd_4bit_send_string_pos@str+1)^0,c
  1924   00127C  ECBB  F007         	call	_lcd_4bit_send_string_pos	;wreg free
  1925   001280                     
  1926                           ;main.c: 31:     lcd_4bit_send_string_pos(&LCD_1 ,2 ,1 ,"Home");
  1927   001280  0E73               	movlw	low _LCD_1
  1928   001282  6E46               	movwf	lcd_4bit_send_string_pos@_lcd^0,c
  1929   001284  0E02               	movlw	2
  1930   001286  6E47               	movwf	lcd_4bit_send_string_pos@row^0,c
  1931   001288  0E01               	movlw	1
  1932   00128A  6E48               	movwf	lcd_4bit_send_string_pos@column^0,c
  1933   00128C  0EF4               	movlw	low STR_5
  1934   00128E  6E49               	movwf	lcd_4bit_send_string_pos@str^0,c
  1935   001290  0EFF               	movlw	high STR_5
  1936   001292  6E4A               	movwf	(lcd_4bit_send_string_pos@str+1)^0,c
  1937   001294  ECBB  F007         	call	_lcd_4bit_send_string_pos	;wreg free
  1938   001298                     
  1939                           ;main.c: 32:      delay_ms(500);
  1940   001298  0EF4               	movlw	244
  1941   00129A  6E32               	movwf	delay_ms@val^0,c
  1942   00129C  0E01               	movlw	1
  1943   00129E  6E33               	movwf	(delay_ms@val+1)^0,c
  1944   0012A0  0E00               	movlw	0
  1945   0012A2  6E34               	movwf	(delay_ms@val+2)^0,c
  1946   0012A4  0E00               	movlw	0
  1947   0012A6  6E35               	movwf	(delay_ms@val+3)^0,c
  1948   0012A8  EC7C  F008         	call	_delay_ms	;wreg free
  1949   0012AC  0012               	return		;funcret
  1950   0012AE                     __end_of_Welcome:
  1951                           	callstack 0
  1952                           
  1953 ;; *************** function _SetPassword *****************
  1954 ;; Defined at:
  1955 ;;		line 37 in file "main.c"
  1956 ;; Parameters:    Size  Location     Type
  1957 ;;		None
  1958 ;; Auto vars:     Size  Location     Type
  1959 ;;  value           1   27[COMRAM] unsigned char 
  1960 ;; Return value:  Size  Location     Type
  1961 ;;                  1    wreg      void 
  1962 ;; Registers used:
  1963 ;;		wreg, fsr1l, fsr1h, fsr2l, fsr2h, status,2, status,0, tblptrl, tblptrh, tblptru, prodl, prodh, cstack
  1964 ;; Tracked objects:
  1965 ;;		On entry : 0/0
  1966 ;;		On exit  : 0/0
  1967 ;;		Unchanged: 0/0
  1968 ;; Data sizes:     COMRAM   BANK0   BANK1   BANK2   BANK3   BANK4   BANK5   BANK6   BANK7   BANK8   BANK9  BANK10  BANK1
      +1  BANK12  BANK13  BANK14  BANK15
  1969 ;;      Params:         0       0       0       0       0       0       0       0       0       0       0       0       
      +0       0       0       0       0
  1970 ;;      Locals:         1       0       0       0       0       0       0       0       0       0       0       0       
      +0       0       0       0       0
  1971 ;;      Temps:          0       0       0       0       0       0       0       0       0       0       0       0       
      +0       0       0       0       0
  1972 ;;      Totals:         1       0       0       0       0       0       0       0       0       0       0       0       
      +0       0       0       0       0
  1973 ;;Total ram usage:        1 bytes
  1974 ;; Hardware stack levels used: 1
  1975 ;; Hardware stack levels required when called: 8
  1976 ;; This function calls:
  1977 ;;		_AdminPassword
  1978 ;;		_EEPROM_Data_Read
  1979 ;;		_GuestPassword
  1980 ;;		_delay_ms
  1981 ;;		_lcd_4bit_send_command
  1982 ;;		_lcd_4bit_send_string_pos
  1983 ;; This function is called by:
  1984 ;;		_main
  1985 ;; This function uses a non-reentrant model
  1986 ;;
  1987                           
  1988                           	psect	text9
  1989   000E28                     __ptext9:
  1990                           	callstack 0
  1991   000E28                     _SetPassword:
  1992                           	callstack 22
  1993   000E28                     
  1994                           ;main.c: 38:     uint8 value = 0;
  1995   000E28  0E00               	movlw	0
  1996   000E2A  6E4D               	movwf	SetPassword@value^0,c
  1997   000E2C                     
  1998                           ;main.c: 40:     EEPROM_Data_Read(0x18 , &value);
  1999   000E2C  0E00               	movlw	0
  2000   000E2E  6E33               	movwf	(EEPROM_Data_Read@Add+1)^0,c
  2001   000E30  0E18               	movlw	24
  2002   000E32  6E32               	movwf	EEPROM_Data_Read@Add^0,c
  2003   000E34  0E4D               	movlw	low SetPassword@value
  2004   000E36  6E34               	movwf	EEPROM_Data_Read@Data^0,c
  2005   000E38  EC2D  F00A         	call	_EEPROM_Data_Read	;wreg free
  2006   000E3C                     
  2007                           ;main.c: 41:     if(value == 0xFF){
  2008   000E3C  284D               	incf	SetPassword@value^0,w,c
  2009   000E3E  A4D8               	btfss	status,2,c
  2010   000E40  EF24  F007         	goto	u3601
  2011   000E44  EF26  F007         	goto	u3600
  2012   000E48                     u3601:
  2013   000E48  EF52  F007         	goto	l1497
  2014   000E4C                     u3600:
  2015   000E4C                     
  2016                           ;main.c: 42:         lcd_4bit_send_command(&LCD_1, 0x01);
  2017   000E4C  0E73               	movlw	low _LCD_1
  2018   000E4E  6E3D               	movwf	lcd_4bit_send_command@_lcd^0,c
  2019   000E50  0E01               	movlw	1
  2020   000E52  6E3E               	movwf	lcd_4bit_send_command@command^0,c
  2021   000E54  ECAB  F008         	call	_lcd_4bit_send_command	;wreg free
  2022   000E58                     
  2023                           ;main.c: 43:         lcd_4bit_send_string_pos(&LCD_1 ,1 ,1 ,"Login for first");
  2024   000E58  0E73               	movlw	low _LCD_1
  2025   000E5A  6E46               	movwf	lcd_4bit_send_string_pos@_lcd^0,c
  2026   000E5C  0E01               	movlw	1
  2027   000E5E  6E47               	movwf	lcd_4bit_send_string_pos@row^0,c
  2028   000E60  0E01               	movlw	1
  2029   000E62  6E48               	movwf	lcd_4bit_send_string_pos@column^0,c
  2030   000E64  0E20               	movlw	low STR_6
  2031   000E66  6E49               	movwf	lcd_4bit_send_string_pos@str^0,c
  2032   000E68  0EFF               	movlw	high STR_6
  2033   000E6A  6E4A               	movwf	(lcd_4bit_send_string_pos@str+1)^0,c
  2034   000E6C  ECBB  F007         	call	_lcd_4bit_send_string_pos	;wreg free
  2035   000E70                     
  2036                           ;main.c: 44:         lcd_4bit_send_string_pos(&LCD_1 ,2 ,1 ,"time");
  2037   000E70  0E73               	movlw	low _LCD_1
  2038   000E72  6E46               	movwf	lcd_4bit_send_string_pos@_lcd^0,c
  2039   000E74  0E02               	movlw	2
  2040   000E76  6E47               	movwf	lcd_4bit_send_string_pos@row^0,c
  2041   000E78  0E01               	movlw	1
  2042   000E7A  6E48               	movwf	lcd_4bit_send_string_pos@column^0,c
  2043   000E7C  0EEF               	movlw	low STR_7
  2044   000E7E  6E49               	movwf	lcd_4bit_send_string_pos@str^0,c
  2045   000E80  0EFF               	movlw	high STR_7
  2046   000E82  6E4A               	movwf	(lcd_4bit_send_string_pos@str+1)^0,c
  2047   000E84  ECBB  F007         	call	_lcd_4bit_send_string_pos	;wreg free
  2048   000E88                     
  2049                           ;main.c: 45:          delay_ms(500);
  2050   000E88  0EF4               	movlw	244
  2051   000E8A  6E32               	movwf	delay_ms@val^0,c
  2052   000E8C  0E01               	movlw	1
  2053   000E8E  6E33               	movwf	(delay_ms@val+1)^0,c
  2054   000E90  0E00               	movlw	0
  2055   000E92  6E34               	movwf	(delay_ms@val+2)^0,c
  2056   000E94  0E00               	movlw	0
  2057   000E96  6E35               	movwf	(delay_ms@val+3)^0,c
  2058   000E98  EC7C  F008         	call	_delay_ms	;wreg free
  2059   000E9C                     
  2060                           ;main.c: 46:         AdminPassword();
  2061   000E9C  EC89  F003         	call	_AdminPassword	;wreg free
  2062   000EA0                     
  2063                           ;main.c: 47:         GuestPassword();
  2064   000EA0  ECF1  F002         	call	_GuestPassword	;wreg free
  2065   000EA4                     l1497:
  2066   000EA4  0012               	return		;funcret
  2067   000EA6                     __end_of_SetPassword:
  2068                           	callstack 0
  2069                           
  2070 ;; *************** function _GuestPassword *****************
  2071 ;; Defined at:
  2072 ;;		line 76 in file "main.c"
  2073 ;; Parameters:    Size  Location     Type
  2074 ;;		None
  2075 ;; Auto vars:     Size  Location     Type
  2076 ;;  i               1   26[COMRAM] unsigned char 
  2077 ;;  value           1   25[COMRAM] unsigned char 
  2078 ;; Return value:  Size  Location     Type
  2079 ;;                  1    wreg      void 
  2080 ;; Registers used:
  2081 ;;		wreg, fsr1l, fsr1h, fsr2l, fsr2h, status,2, status,0, tblptrl, tblptrh, tblptru, prodl, prodh, cstack
  2082 ;; Tracked objects:
  2083 ;;		On entry : 0/0
  2084 ;;		On exit  : 0/0
  2085 ;;		Unchanged: 0/0
  2086 ;; Data sizes:     COMRAM   BANK0   BANK1   BANK2   BANK3   BANK4   BANK5   BANK6   BANK7   BANK8   BANK9  BANK10  BANK1
      +1  BANK12  BANK13  BANK14  BANK15
  2087 ;;      Params:         0       0       0       0       0       0       0       0       0       0       0       0       
      +0       0       0       0       0
  2088 ;;      Locals:         2       0       0       0       0       0       0       0       0       0       0       0       
      +0       0       0       0       0
  2089 ;;      Temps:          0       0       0       0       0       0       0       0       0       0       0       0       
      +0       0       0       0       0
  2090 ;;      Totals:         2       0       0       0       0       0       0       0       0       0       0       0       
      +0       0       0       0       0
  2091 ;;Total ram usage:        2 bytes
  2092 ;; Hardware stack levels used: 1
  2093 ;; Hardware stack levels required when called: 7
  2094 ;; This function calls:
  2095 ;;		_EEPROM_Data_Write
  2096 ;;		_delay_ms
  2097 ;;		_keypad_get_value
  2098 ;;		_lcd_4bit_send_char_data_pos
  2099 ;;		_lcd_4bit_send_command
  2100 ;;		_lcd_4bit_send_string_pos
  2101 ;; This function is called by:
  2102 ;;		_SetPassword
  2103 ;; This function uses a non-reentrant model
  2104 ;;
  2105                           
  2106                           	psect	text10
  2107   0005E2                     __ptext10:
  2108                           	callstack 0
  2109   0005E2                     _GuestPassword:
  2110                           	callstack 22
  2111   0005E2                     
  2112                           ;main.c: 78:     lcd_4bit_send_command(&LCD_1, 0x01);
  2113   0005E2  0E73               	movlw	low _LCD_1
  2114   0005E4  6E3D               	movwf	lcd_4bit_send_command@_lcd^0,c
  2115   0005E6  0E01               	movlw	1
  2116   0005E8  6E3E               	movwf	lcd_4bit_send_command@command^0,c
  2117   0005EA  ECAB  F008         	call	_lcd_4bit_send_command	;wreg free
  2118   0005EE                     
  2119                           ;main.c: 79:     lcd_4bit_send_string_pos(&LCD_1 ,1 ,1 ,"Set Guest Pass");
  2120   0005EE  0E73               	movlw	low _LCD_1
  2121   0005F0  6E46               	movwf	lcd_4bit_send_string_pos@_lcd^0,c
  2122   0005F2  0E01               	movlw	1
  2123   0005F4  6E47               	movwf	lcd_4bit_send_string_pos@row^0,c
  2124   0005F6  0E01               	movlw	1
  2125   0005F8  6E48               	movwf	lcd_4bit_send_string_pos@column^0,c
  2126   0005FA  0E3F               	movlw	low STR_12
  2127   0005FC  6E49               	movwf	lcd_4bit_send_string_pos@str^0,c
  2128   0005FE  0EFF               	movlw	high STR_12
  2129   000600  6E4A               	movwf	(lcd_4bit_send_string_pos@str+1)^0,c
  2130   000602  ECBB  F007         	call	_lcd_4bit_send_string_pos	;wreg free
  2131   000606                     
  2132                           ;main.c: 80:     lcd_4bit_send_string_pos(&LCD_1 ,2 ,1 ,"Guest Pass:");
  2133   000606  0E73               	movlw	low _LCD_1
  2134   000608  6E46               	movwf	lcd_4bit_send_string_pos@_lcd^0,c
  2135   00060A  0E02               	movlw	2
  2136   00060C  6E47               	movwf	lcd_4bit_send_string_pos@row^0,c
  2137   00060E  0E01               	movlw	1
  2138   000610  6E48               	movwf	lcd_4bit_send_string_pos@column^0,c
  2139   000612  0E83               	movlw	low STR_13
  2140   000614  6E49               	movwf	lcd_4bit_send_string_pos@str^0,c
  2141   000616  0EFF               	movlw	high STR_13
  2142   000618  6E4A               	movwf	(lcd_4bit_send_string_pos@str+1)^0,c
  2143   00061A  ECBB  F007         	call	_lcd_4bit_send_string_pos	;wreg free
  2144   00061E                     
  2145                           ;main.c: 82:     for(uint8 i=0; i<4; i++){
  2146   00061E  0E00               	movlw	0
  2147   000620  6E4C               	movwf	GuestPassword@i^0,c
  2148   000622                     l1508:
  2149                           
  2150                           ;main.c: 83:             value = 0xFF;
  2151   000622  684B               	setf	GuestPassword@value^0,c
  2152   000624                     
  2153                           ;main.c: 84:             lcd_4bit_send_char_data_pos(&LCD_1, 2, 12+i,'_');
  2154   000624  0E73               	movlw	low _LCD_1
  2155   000626  6E46               	movwf	lcd_4bit_send_char_data_pos@_lcd^0,c
  2156   000628  0E02               	movlw	2
  2157   00062A  6E47               	movwf	lcd_4bit_send_char_data_pos@row^0,c
  2158   00062C  504C               	movf	GuestPassword@i^0,w,c
  2159   00062E  0F0C               	addlw	12
  2160   000630  6E48               	movwf	lcd_4bit_send_char_data_pos@column^0,c
  2161   000632  0E5F               	movlw	95
  2162   000634  6E49               	movwf	lcd_4bit_send_char_data_pos@data^0,c
  2163   000636  EC0F  F00A         	call	_lcd_4bit_send_char_data_pos	;wreg free
  2164                           
  2165                           ;main.c: 86:             while(value == 0xFF){
  2166   00063A  EF25  F003         	goto	l5364
  2167   00063E                     l5362:
  2168                           
  2169                           ;main.c: 87:                 keypad_get_value(&keypad_1, &value);
  2170   00063E  0E8A               	movlw	low _keypad_1
  2171   000640  6E3A               	movwf	keypad_get_value@_keypad^0,c
  2172   000642  0E4B               	movlw	low GuestPassword@value
  2173   000644  6E3B               	movwf	keypad_get_value@value^0,c
  2174   000646  EC3C  F005         	call	_keypad_get_value	;wreg free
  2175   00064A                     l5364:
  2176                           
  2177                           ;main.c: 86:             while(value == 0xFF){
  2178   00064A  284B               	incf	GuestPassword@value^0,w,c
  2179   00064C  B4D8               	btfsc	status,2,c
  2180   00064E  EF2B  F003         	goto	u3361
  2181   000652  EF2D  F003         	goto	u3360
  2182   000656                     u3361:
  2183   000656  EF1F  F003         	goto	l5362
  2184   00065A                     u3360:
  2185   00065A                     
  2186                           ;main.c: 89:             lcd_4bit_send_char_data_pos(&LCD_1, 2, 12+i, value);
  2187   00065A  0E73               	movlw	low _LCD_1
  2188   00065C  6E46               	movwf	lcd_4bit_send_char_data_pos@_lcd^0,c
  2189   00065E  0E02               	movlw	2
  2190   000660  6E47               	movwf	lcd_4bit_send_char_data_pos@row^0,c
  2191   000662  504C               	movf	GuestPassword@i^0,w,c
  2192   000664  0F0C               	addlw	12
  2193   000666  6E48               	movwf	lcd_4bit_send_char_data_pos@column^0,c
  2194   000668  C04B  F049         	movff	GuestPassword@value,lcd_4bit_send_char_data_pos@data
  2195   00066C  EC0F  F00A         	call	_lcd_4bit_send_char_data_pos	;wreg free
  2196   000670                     
  2197                           ;main.c: 90:             delay_ms(350);
  2198   000670  0E5E               	movlw	94
  2199   000672  6E32               	movwf	delay_ms@val^0,c
  2200   000674  0E01               	movlw	1
  2201   000676  6E33               	movwf	(delay_ms@val+1)^0,c
  2202   000678  0E00               	movlw	0
  2203   00067A  6E34               	movwf	(delay_ms@val+2)^0,c
  2204   00067C  0E00               	movlw	0
  2205   00067E  6E35               	movwf	(delay_ms@val+3)^0,c
  2206   000680  EC7C  F008         	call	_delay_ms	;wreg free
  2207   000684                     
  2208                           ;main.c: 91:             lcd_4bit_send_char_data_pos(&LCD_1, 2, 12+i, '*');
  2209   000684  0E73               	movlw	low _LCD_1
  2210   000686  6E46               	movwf	lcd_4bit_send_char_data_pos@_lcd^0,c
  2211   000688  0E02               	movlw	2
  2212   00068A  6E47               	movwf	lcd_4bit_send_char_data_pos@row^0,c
  2213   00068C  504C               	movf	GuestPassword@i^0,w,c
  2214   00068E  0F0C               	addlw	12
  2215   000690  6E48               	movwf	lcd_4bit_send_char_data_pos@column^0,c
  2216   000692  0E2A               	movlw	42
  2217   000694  6E49               	movwf	lcd_4bit_send_char_data_pos@data^0,c
  2218   000696  EC0F  F00A         	call	_lcd_4bit_send_char_data_pos	;wreg free
  2219                           
  2220                           ;main.c: 92:             EEPROM_Data_Write((0x1C + i), value);
  2221   00069A  0E1C               	movlw	28
  2222   00069C  244C               	addwf	GuestPassword@i^0,w,c
  2223   00069E  6E32               	movwf	EEPROM_Data_Write@Add^0,c
  2224   0006A0  6A33               	clrf	(EEPROM_Data_Write@Add+1)^0,c
  2225   0006A2  0E00               	movlw	0
  2226   0006A4  2233               	addwfc	(EEPROM_Data_Write@Add+1)^0,f,c
  2227   0006A6  C04B  F034         	movff	GuestPassword@value,EEPROM_Data_Write@Data
  2228   0006AA  ECED  F009         	call	_EEPROM_Data_Write	;wreg free
  2229   0006AE                     
  2230                           ;main.c: 93:         }
  2231   0006AE  2A4C               	incf	GuestPassword@i^0,f,c
  2232   0006B0  0E03               	movlw	3
  2233   0006B2  644C               	cpfsgt	GuestPassword@i^0,c
  2234   0006B4  EF5E  F003         	goto	u3371
  2235   0006B8  EF60  F003         	goto	u3370
  2236   0006BC                     u3371:
  2237   0006BC  EF11  F003         	goto	l1508
  2238   0006C0                     u3370:
  2239   0006C0                     
  2240                           ;main.c: 94:         lcd_4bit_send_command(&LCD_1, 0x01);
  2241   0006C0  0E73               	movlw	low _LCD_1
  2242   0006C2  6E3D               	movwf	lcd_4bit_send_command@_lcd^0,c
  2243   0006C4  0E01               	movlw	1
  2244   0006C6  6E3E               	movwf	lcd_4bit_send_command@command^0,c
  2245   0006C8  ECAB  F008         	call	_lcd_4bit_send_command	;wreg free
  2246   0006CC                     
  2247                           ;main.c: 95:         lcd_4bit_send_string_pos(&LCD_1 ,1 ,1 ,"Guest Pass");
  2248   0006CC  0E73               	movlw	low _LCD_1
  2249   0006CE  6E46               	movwf	lcd_4bit_send_string_pos@_lcd^0,c
  2250   0006D0  0E01               	movlw	1
  2251   0006D2  6E47               	movwf	lcd_4bit_send_string_pos@row^0,c
  2252   0006D4  0E01               	movlw	1
  2253   0006D6  6E48               	movwf	lcd_4bit_send_string_pos@column^0,c
  2254   0006D8  0E43               	movlw	low (STR_12+4)
  2255   0006DA  6E49               	movwf	lcd_4bit_send_string_pos@str^0,c
  2256   0006DC  0EFF               	movlw	high (STR_12+4)
  2257   0006DE  6E4A               	movwf	(lcd_4bit_send_string_pos@str+1)^0,c
  2258   0006E0  ECBB  F007         	call	_lcd_4bit_send_string_pos	;wreg free
  2259   0006E4                     
  2260                           ;main.c: 96:         lcd_4bit_send_string_pos(&LCD_1 ,2 ,1 ,"Created :)");
  2261   0006E4  0E73               	movlw	low _LCD_1
  2262   0006E6  6E46               	movwf	lcd_4bit_send_string_pos@_lcd^0,c
  2263   0006E8  0E02               	movlw	2
  2264   0006EA  6E47               	movwf	lcd_4bit_send_string_pos@row^0,c
  2265   0006EC  0E01               	movlw	1
  2266   0006EE  6E48               	movwf	lcd_4bit_send_string_pos@column^0,c
  2267   0006F0  0EBF               	movlw	low STR_11
  2268   0006F2  6E49               	movwf	lcd_4bit_send_string_pos@str^0,c
  2269   0006F4  0EFF               	movlw	high STR_11
  2270   0006F6  6E4A               	movwf	(lcd_4bit_send_string_pos@str+1)^0,c
  2271   0006F8  ECBB  F007         	call	_lcd_4bit_send_string_pos	;wreg free
  2272   0006FC                     
  2273                           ;main.c: 97:         delay_ms(500);
  2274   0006FC  0EF4               	movlw	244
  2275   0006FE  6E32               	movwf	delay_ms@val^0,c
  2276   000700  0E01               	movlw	1
  2277   000702  6E33               	movwf	(delay_ms@val+1)^0,c
  2278   000704  0E00               	movlw	0
  2279   000706  6E34               	movwf	(delay_ms@val+2)^0,c
  2280   000708  0E00               	movlw	0
  2281   00070A  6E35               	movwf	(delay_ms@val+3)^0,c
  2282   00070C  EC7C  F008         	call	_delay_ms	;wreg free
  2283   000710  0012               	return		;funcret
  2284   000712                     __end_of_GuestPassword:
  2285                           	callstack 0
  2286                           
  2287 ;; *************** function _AdminPassword *****************
  2288 ;; Defined at:
  2289 ;;		line 52 in file "main.c"
  2290 ;; Parameters:    Size  Location     Type
  2291 ;;		None
  2292 ;; Auto vars:     Size  Location     Type
  2293 ;;  i               1   26[COMRAM] unsigned char 
  2294 ;;  value           1   25[COMRAM] unsigned char 
  2295 ;; Return value:  Size  Location     Type
  2296 ;;                  1    wreg      void 
  2297 ;; Registers used:
  2298 ;;		wreg, fsr1l, fsr1h, fsr2l, fsr2h, status,2, status,0, tblptrl, tblptrh, tblptru, prodl, prodh, cstack
  2299 ;; Tracked objects:
  2300 ;;		On entry : 0/0
  2301 ;;		On exit  : 0/0
  2302 ;;		Unchanged: 0/0
  2303 ;; Data sizes:     COMRAM   BANK0   BANK1   BANK2   BANK3   BANK4   BANK5   BANK6   BANK7   BANK8   BANK9  BANK10  BANK1
      +1  BANK12  BANK13  BANK14  BANK15
  2304 ;;      Params:         0       0       0       0       0       0       0       0       0       0       0       0       
      +0       0       0       0       0
  2305 ;;      Locals:         2       0       0       0       0       0       0       0       0       0       0       0       
      +0       0       0       0       0
  2306 ;;      Temps:          0       0       0       0       0       0       0       0       0       0       0       0       
      +0       0       0       0       0
  2307 ;;      Totals:         2       0       0       0       0       0       0       0       0       0       0       0       
      +0       0       0       0       0
  2308 ;;Total ram usage:        2 bytes
  2309 ;; Hardware stack levels used: 1
  2310 ;; Hardware stack levels required when called: 7
  2311 ;; This function calls:
  2312 ;;		_EEPROM_Data_Write
  2313 ;;		_delay_ms
  2314 ;;		_keypad_get_value
  2315 ;;		_lcd_4bit_send_char_data_pos
  2316 ;;		_lcd_4bit_send_command
  2317 ;;		_lcd_4bit_send_string_pos
  2318 ;; This function is called by:
  2319 ;;		_SetPassword
  2320 ;; This function uses a non-reentrant model
  2321 ;;
  2322                           
  2323                           	psect	text11
  2324   000712                     __ptext11:
  2325                           	callstack 0
  2326   000712                     _AdminPassword:
  2327                           	callstack 22
  2328   000712                     
  2329                           ;main.c: 54:     lcd_4bit_send_command(&LCD_1, 0x01);
  2330   000712  0E73               	movlw	low _LCD_1
  2331   000714  6E3D               	movwf	lcd_4bit_send_command@_lcd^0,c
  2332   000716  0E01               	movlw	1
  2333   000718  6E3E               	movwf	lcd_4bit_send_command@command^0,c
  2334   00071A  ECAB  F008         	call	_lcd_4bit_send_command	;wreg free
  2335   00071E                     
  2336                           ;main.c: 55:     lcd_4bit_send_string_pos(&LCD_1 ,1 ,1 ,"Set Admin Pass");
  2337   00071E  0E73               	movlw	low _LCD_1
  2338   000720  6E46               	movwf	lcd_4bit_send_string_pos@_lcd^0,c
  2339   000722  0E01               	movlw	1
  2340   000724  6E47               	movwf	lcd_4bit_send_string_pos@row^0,c
  2341   000726  0E01               	movlw	1
  2342   000728  6E48               	movwf	lcd_4bit_send_string_pos@column^0,c
  2343   00072A  0E30               	movlw	low STR_8
  2344   00072C  6E49               	movwf	lcd_4bit_send_string_pos@str^0,c
  2345   00072E  0EFF               	movlw	high STR_8
  2346   000730  6E4A               	movwf	(lcd_4bit_send_string_pos@str+1)^0,c
  2347   000732  ECBB  F007         	call	_lcd_4bit_send_string_pos	;wreg free
  2348   000736                     
  2349                           ;main.c: 56:     lcd_4bit_send_string_pos(&LCD_1 ,2 ,1 ,"Admin Pass:");
  2350   000736  0E73               	movlw	low _LCD_1
  2351   000738  6E46               	movwf	lcd_4bit_send_string_pos@_lcd^0,c
  2352   00073A  0E02               	movlw	2
  2353   00073C  6E47               	movwf	lcd_4bit_send_string_pos@row^0,c
  2354   00073E  0E01               	movlw	1
  2355   000740  6E48               	movwf	lcd_4bit_send_string_pos@column^0,c
  2356   000742  0E77               	movlw	low STR_9
  2357   000744  6E49               	movwf	lcd_4bit_send_string_pos@str^0,c
  2358   000746  0EFF               	movlw	high STR_9
  2359   000748  6E4A               	movwf	(lcd_4bit_send_string_pos@str+1)^0,c
  2360   00074A  ECBB  F007         	call	_lcd_4bit_send_string_pos	;wreg free
  2361   00074E                     
  2362                           ;main.c: 58:     for(uint8 i=0; i<4; i++){
  2363   00074E  0E00               	movlw	0
  2364   000750  6E4C               	movwf	AdminPassword@i^0,c
  2365   000752                     l1500:
  2366                           
  2367                           ;main.c: 59:             value = 0xFF;
  2368   000752  684B               	setf	AdminPassword@value^0,c
  2369   000754                     
  2370                           ;main.c: 60:             lcd_4bit_send_char_data_pos(&LCD_1, 2, 12+i,'_');
  2371   000754  0E73               	movlw	low _LCD_1
  2372   000756  6E46               	movwf	lcd_4bit_send_char_data_pos@_lcd^0,c
  2373   000758  0E02               	movlw	2
  2374   00075A  6E47               	movwf	lcd_4bit_send_char_data_pos@row^0,c
  2375   00075C  504C               	movf	AdminPassword@i^0,w,c
  2376   00075E  0F0C               	addlw	12
  2377   000760  6E48               	movwf	lcd_4bit_send_char_data_pos@column^0,c
  2378   000762  0E5F               	movlw	95
  2379   000764  6E49               	movwf	lcd_4bit_send_char_data_pos@data^0,c
  2380   000766  EC0F  F00A         	call	_lcd_4bit_send_char_data_pos	;wreg free
  2381                           
  2382                           ;main.c: 61:             while(value == 0xFF){
  2383   00076A  EFBD  F003         	goto	l5326
  2384   00076E                     l5324:
  2385                           
  2386                           ;main.c: 62:                 keypad_get_value(&keypad_1, &value);
  2387   00076E  0E8A               	movlw	low _keypad_1
  2388   000770  6E3A               	movwf	keypad_get_value@_keypad^0,c
  2389   000772  0E4B               	movlw	low AdminPassword@value
  2390   000774  6E3B               	movwf	keypad_get_value@value^0,c
  2391   000776  EC3C  F005         	call	_keypad_get_value	;wreg free
  2392   00077A                     l5326:
  2393                           
  2394                           ;main.c: 61:             while(value == 0xFF){
  2395   00077A  284B               	incf	AdminPassword@value^0,w,c
  2396   00077C  B4D8               	btfsc	status,2,c
  2397   00077E  EFC3  F003         	goto	u3341
  2398   000782  EFC5  F003         	goto	u3340
  2399   000786                     u3341:
  2400   000786  EFB7  F003         	goto	l5324
  2401   00078A                     u3340:
  2402   00078A                     
  2403                           ;main.c: 64:             lcd_4bit_send_char_data_pos(&LCD_1, 2, 12+i, value);
  2404   00078A  0E73               	movlw	low _LCD_1
  2405   00078C  6E46               	movwf	lcd_4bit_send_char_data_pos@_lcd^0,c
  2406   00078E  0E02               	movlw	2
  2407   000790  6E47               	movwf	lcd_4bit_send_char_data_pos@row^0,c
  2408   000792  504C               	movf	AdminPassword@i^0,w,c
  2409   000794  0F0C               	addlw	12
  2410   000796  6E48               	movwf	lcd_4bit_send_char_data_pos@column^0,c
  2411   000798  C04B  F049         	movff	AdminPassword@value,lcd_4bit_send_char_data_pos@data
  2412   00079C  EC0F  F00A         	call	_lcd_4bit_send_char_data_pos	;wreg free
  2413   0007A0                     
  2414                           ;main.c: 65:             delay_ms(350);
  2415   0007A0  0E5E               	movlw	94
  2416   0007A2  6E32               	movwf	delay_ms@val^0,c
  2417   0007A4  0E01               	movlw	1
  2418   0007A6  6E33               	movwf	(delay_ms@val+1)^0,c
  2419   0007A8  0E00               	movlw	0
  2420   0007AA  6E34               	movwf	(delay_ms@val+2)^0,c
  2421   0007AC  0E00               	movlw	0
  2422   0007AE  6E35               	movwf	(delay_ms@val+3)^0,c
  2423   0007B0  EC7C  F008         	call	_delay_ms	;wreg free
  2424   0007B4                     
  2425                           ;main.c: 66:             lcd_4bit_send_char_data_pos(&LCD_1, 2, 12+i, '*');
  2426   0007B4  0E73               	movlw	low _LCD_1
  2427   0007B6  6E46               	movwf	lcd_4bit_send_char_data_pos@_lcd^0,c
  2428   0007B8  0E02               	movlw	2
  2429   0007BA  6E47               	movwf	lcd_4bit_send_char_data_pos@row^0,c
  2430   0007BC  504C               	movf	AdminPassword@i^0,w,c
  2431   0007BE  0F0C               	addlw	12
  2432   0007C0  6E48               	movwf	lcd_4bit_send_char_data_pos@column^0,c
  2433   0007C2  0E2A               	movlw	42
  2434   0007C4  6E49               	movwf	lcd_4bit_send_char_data_pos@data^0,c
  2435   0007C6  EC0F  F00A         	call	_lcd_4bit_send_char_data_pos	;wreg free
  2436                           
  2437                           ;main.c: 67:             EEPROM_Data_Write((0x18 + i), value);
  2438   0007CA  0E18               	movlw	24
  2439   0007CC  244C               	addwf	AdminPassword@i^0,w,c
  2440   0007CE  6E32               	movwf	EEPROM_Data_Write@Add^0,c
  2441   0007D0  6A33               	clrf	(EEPROM_Data_Write@Add+1)^0,c
  2442   0007D2  0E00               	movlw	0
  2443   0007D4  2233               	addwfc	(EEPROM_Data_Write@Add+1)^0,f,c
  2444   0007D6  C04B  F034         	movff	AdminPassword@value,EEPROM_Data_Write@Data
  2445   0007DA  ECED  F009         	call	_EEPROM_Data_Write	;wreg free
  2446   0007DE                     
  2447                           ;main.c: 68:         }
  2448   0007DE  2A4C               	incf	AdminPassword@i^0,f,c
  2449   0007E0  0E03               	movlw	3
  2450   0007E2  644C               	cpfsgt	AdminPassword@i^0,c
  2451   0007E4  EFF6  F003         	goto	u3351
  2452   0007E8  EFF8  F003         	goto	u3350
  2453   0007EC                     u3351:
  2454   0007EC  EFA9  F003         	goto	l1500
  2455   0007F0                     u3350:
  2456   0007F0                     
  2457                           ;main.c: 69:          lcd_4bit_send_command(&LCD_1, 0x01);
  2458   0007F0  0E73               	movlw	low _LCD_1
  2459   0007F2  6E3D               	movwf	lcd_4bit_send_command@_lcd^0,c
  2460   0007F4  0E01               	movlw	1
  2461   0007F6  6E3E               	movwf	lcd_4bit_send_command@command^0,c
  2462   0007F8  ECAB  F008         	call	_lcd_4bit_send_command	;wreg free
  2463   0007FC                     
  2464                           ;main.c: 70:         lcd_4bit_send_string_pos(&LCD_1 ,1 ,1 ,"Admin Pass");
  2465   0007FC  0E73               	movlw	low _LCD_1
  2466   0007FE  6E46               	movwf	lcd_4bit_send_string_pos@_lcd^0,c
  2467   000800  0E01               	movlw	1
  2468   000802  6E47               	movwf	lcd_4bit_send_string_pos@row^0,c
  2469   000804  0E01               	movlw	1
  2470   000806  6E48               	movwf	lcd_4bit_send_string_pos@column^0,c
  2471   000808  0E34               	movlw	low (STR_8+4)
  2472   00080A  6E49               	movwf	lcd_4bit_send_string_pos@str^0,c
  2473   00080C  0EFF               	movlw	high (STR_8+4)
  2474   00080E  6E4A               	movwf	(lcd_4bit_send_string_pos@str+1)^0,c
  2475   000810  ECBB  F007         	call	_lcd_4bit_send_string_pos	;wreg free
  2476   000814                     
  2477                           ;main.c: 71:         lcd_4bit_send_string_pos(&LCD_1 ,2 ,1 ,"Created :)");
  2478   000814  0E73               	movlw	low _LCD_1
  2479   000816  6E46               	movwf	lcd_4bit_send_string_pos@_lcd^0,c
  2480   000818  0E02               	movlw	2
  2481   00081A  6E47               	movwf	lcd_4bit_send_string_pos@row^0,c
  2482   00081C  0E01               	movlw	1
  2483   00081E  6E48               	movwf	lcd_4bit_send_string_pos@column^0,c
  2484   000820  0EBF               	movlw	low STR_11
  2485   000822  6E49               	movwf	lcd_4bit_send_string_pos@str^0,c
  2486   000824  0EFF               	movlw	high STR_11
  2487   000826  6E4A               	movwf	(lcd_4bit_send_string_pos@str+1)^0,c
  2488   000828  ECBB  F007         	call	_lcd_4bit_send_string_pos	;wreg free
  2489   00082C                     
  2490                           ;main.c: 72:         delay_ms(500);
  2491   00082C  0EF4               	movlw	244
  2492   00082E  6E32               	movwf	delay_ms@val^0,c
  2493   000830  0E01               	movlw	1
  2494   000832  6E33               	movwf	(delay_ms@val+1)^0,c
  2495   000834  0E00               	movlw	0
  2496   000836  6E34               	movwf	(delay_ms@val+2)^0,c
  2497   000838  0E00               	movlw	0
  2498   00083A  6E35               	movwf	(delay_ms@val+3)^0,c
  2499   00083C  EC7C  F008         	call	_delay_ms	;wreg free
  2500   000840  0012               	return		;funcret
  2501   000842                     __end_of_AdminPassword:
  2502                           	callstack 0
  2503                           
  2504 ;; *************** function _EEPROM_Data_Write *****************
  2505 ;; Defined at:
  2506 ;;		line 11 in file "MCAL_Layer/EEPROM/hal_eeprom.c"
  2507 ;; Parameters:    Size  Location     Type
  2508 ;;  Add             2    0[COMRAM] unsigned short 
  2509 ;;  Data            1    2[COMRAM] unsigned char 
  2510 ;; Auto vars:     Size  Location     Type
  2511 ;;  Interrupt_Gl    1    3[COMRAM] unsigned char 
  2512 ;;  status          1    0        unsigned char 
  2513 ;; Return value:  Size  Location     Type
  2514 ;;                  1    wreg      unsigned char 
  2515 ;; Registers used:
  2516 ;;		wreg, status,2, status,0
  2517 ;; Tracked objects:
  2518 ;;		On entry : 0/0
  2519 ;;		On exit  : 0/0
  2520 ;;		Unchanged: 0/0
  2521 ;; Data sizes:     COMRAM   BANK0   BANK1   BANK2   BANK3   BANK4   BANK5   BANK6   BANK7   BANK8   BANK9  BANK10  BANK1
      +1  BANK12  BANK13  BANK14  BANK15
  2522 ;;      Params:         3       0       0       0       0       0       0       0       0       0       0       0       
      +0       0       0       0       0
  2523 ;;      Locals:         1       0       0       0       0       0       0       0       0       0       0       0       
      +0       0       0       0       0
  2524 ;;      Temps:          0       0       0       0       0       0       0       0       0       0       0       0       
      +0       0       0       0       0
  2525 ;;      Totals:         4       0       0       0       0       0       0       0       0       0       0       0       
      +0       0       0       0       0
  2526 ;;Total ram usage:        4 bytes
  2527 ;; Hardware stack levels used: 1
  2528 ;; Hardware stack levels required when called: 2
  2529 ;; This function calls:
  2530 ;;		Nothing
  2531 ;; This function is called by:
  2532 ;;		_AdminPassword
  2533 ;;		_GuestPassword
  2534 ;; This function uses a non-reentrant model
  2535 ;;
  2536                           
  2537                           	psect	text12
  2538   0013DA                     __ptext12:
  2539                           	callstack 0
  2540   0013DA                     _EEPROM_Data_Write:
  2541                           	callstack 26
  2542   0013DA                     
  2543                           ;MCAL_Layer/EEPROM/hal_eeprom.c: 14:     uint8 Interrupt_Global_Status = INTCONbits.GIE;
  2544   0013DA  0E00               	movlw	0
  2545   0013DC  BEF2               	btfsc	242,7,c	;volatile
  2546   0013DE  0E01               	movlw	1
  2547   0013E0  6E35               	movwf	EEPROM_Data_Write@Interrupt_Global_Status^0,c
  2548   0013E2                     
  2549                           ;MCAL_Layer/EEPROM/hal_eeprom.c: 15:     EEADRH = ((Add >> 8) & 0x03);
  2550   0013E2  5033               	movf	(EEPROM_Data_Write@Add+1)^0,w,c
  2551   0013E4  0B03               	andlw	3
  2552   0013E6  6EAA               	movwf	170,c	;volatile
  2553   0013E8                     
  2554                           ;MCAL_Layer/EEPROM/hal_eeprom.c: 16:     EEADR = (Add & 0xFF);
  2555   0013E8  C032  FFA9         	movff	EEPROM_Data_Write@Add,4009	;volatile
  2556   0013EC                     
  2557                           ;MCAL_Layer/EEPROM/hal_eeprom.c: 17:     EEDATA = Data;
  2558   0013EC  C034  FFA8         	movff	EEPROM_Data_Write@Data,4008	;volatile
  2559   0013F0                     
  2560                           ;MCAL_Layer/EEPROM/hal_eeprom.c: 18:     EECON1bits.EEPGD = 0;
  2561   0013F0  9EA6               	bcf	166,7,c	;volsfr
  2562   0013F2                     
  2563                           ;MCAL_Layer/EEPROM/hal_eeprom.c: 19:     EECON1bits.CFGS = 0;
  2564   0013F2  9CA6               	bcf	166,6,c	;volsfr
  2565   0013F4                     
  2566                           ;MCAL_Layer/EEPROM/hal_eeprom.c: 20:     EECON1bits.WREN = 1;
  2567   0013F4  84A6               	bsf	166,2,c	;volsfr
  2568   0013F6                     
  2569                           ;MCAL_Layer/EEPROM/hal_eeprom.c: 21:     (INTCONbits.GIE = 0);
  2570   0013F6  9EF2               	bcf	242,7,c	;volatile
  2571   0013F8                     
  2572                           ;MCAL_Layer/EEPROM/hal_eeprom.c: 22:     EECON2 = 0x55;
  2573   0013F8  0E55               	movlw	85
  2574   0013FA  6EA7               	movwf	167,c	;volsfr
  2575   0013FC                     
  2576                           ;MCAL_Layer/EEPROM/hal_eeprom.c: 23:     EECON2 = 0xAA;
  2577   0013FC  0EAA               	movlw	170
  2578   0013FE  6EA7               	movwf	167,c	;volsfr
  2579   001400                     
  2580                           ;MCAL_Layer/EEPROM/hal_eeprom.c: 24:     EECON1bits.WR = 1;
  2581   001400  82A6               	bsf	166,1,c	;volsfr
  2582   001402                     l510:
  2583   001402  B2A6               	btfsc	166,1,c	;volsfr
  2584   001404  EF06  F00A         	goto	u3261
  2585   001408  EF08  F00A         	goto	u3260
  2586   00140C                     u3261:
  2587   00140C  EF01  F00A         	goto	l510
  2588   001410                     u3260:
  2589   001410                     
  2590                           ;MCAL_Layer/EEPROM/hal_eeprom.c: 27:     EECON1bits.WREN = 0;
  2591   001410  94A6               	bcf	166,2,c	;volsfr
  2592                           
  2593                           ;MCAL_Layer/EEPROM/hal_eeprom.c: 29:     INTCONbits.GIE = Interrupt_Global_Status;
  2594   001412  B035               	btfsc	EEPROM_Data_Write@Interrupt_Global_Status^0,0,c
  2595   001414  D002               	bra	u3275
  2596   001416  9EF2               	bcf	242,7,c	;volatile
  2597   001418  D001               	bra	u3276
  2598   00141A                     u3275:
  2599   00141A  8EF2               	bsf	242,7,c	;volatile
  2600   00141C                     u3276:
  2601   00141C  0012               	return		;funcret
  2602   00141E                     __end_of_EEPROM_Data_Write:
  2603                           	callstack 0
  2604                           
  2605 ;; *************** function _SelectAdminOrGuest *****************
  2606 ;; Defined at:
  2607 ;;		line 102 in file "main.c"
  2608 ;; Parameters:    Size  Location     Type
  2609 ;;		None
  2610 ;; Auto vars:     Size  Location     Type
  2611 ;;  value           1   40[COMRAM] unsigned char 
  2612 ;; Return value:  Size  Location     Type
  2613 ;;                  1    wreg      void 
  2614 ;; Registers used:
  2615 ;;		wreg, fsr1l, fsr1h, fsr2l, fsr2h, status,2, status,0, tblptrl, tblptrh, tblptru, prodl, prodh, cstack
  2616 ;; Tracked objects:
  2617 ;;		On entry : 0/0
  2618 ;;		On exit  : 0/0
  2619 ;;		Unchanged: 0/0
  2620 ;; Data sizes:     COMRAM   BANK0   BANK1   BANK2   BANK3   BANK4   BANK5   BANK6   BANK7   BANK8   BANK9  BANK10  BANK1
      +1  BANK12  BANK13  BANK14  BANK15
  2621 ;;      Params:         0       0       0       0       0       0       0       0       0       0       0       0       
      +0       0       0       0       0
  2622 ;;      Locals:         1       0       0       0       0       0       0       0       0       0       0       0       
      +0       0       0       0       0
  2623 ;;      Temps:          2       0       0       0       0       0       0       0       0       0       0       0       
      +0       0       0       0       0
  2624 ;;      Totals:         3       0       0       0       0       0       0       0       0       0       0       0       
      +0       0       0       0       0
  2625 ;;Total ram usage:        3 bytes
  2626 ;; Hardware stack levels used: 1
  2627 ;; Hardware stack levels required when called: 9
  2628 ;; This function calls:
  2629 ;;		_AdminLogin
  2630 ;;		_GuestLogin
  2631 ;;		_delay_ms
  2632 ;;		_keypad_get_value
  2633 ;;		_lcd_4bit_send_command
  2634 ;;		_lcd_4bit_send_string_pos
  2635 ;; This function is called by:
  2636 ;;		_main
  2637 ;; This function uses a non-reentrant model
  2638 ;;
  2639                           
  2640                           	psect	text13
  2641   000C38                     __ptext13:
  2642                           	callstack 0
  2643   000C38                     _SelectAdminOrGuest:
  2644                           	callstack 21
  2645   000C38                     
  2646                           ;main.c: 103:     uint8 value = 0xFF;
  2647   000C38  685A               	setf	SelectAdminOrGuest@value^0,c
  2648   000C3A                     
  2649                           ;main.c: 104:         lcd_4bit_send_command(&LCD_1, 0x01);
  2650   000C3A  0E73               	movlw	low _LCD_1
  2651   000C3C  6E3D               	movwf	lcd_4bit_send_command@_lcd^0,c
  2652   000C3E  0E01               	movlw	1
  2653   000C40  6E3E               	movwf	lcd_4bit_send_command@command^0,c
  2654   000C42  ECAB  F008         	call	_lcd_4bit_send_command	;wreg free
  2655   000C46                     
  2656                           ;main.c: 105:         lcd_4bit_send_string_pos(&LCD_1 ,1 ,1 ,"Login as");
  2657   000C46  0E73               	movlw	low _LCD_1
  2658   000C48  6E46               	movwf	lcd_4bit_send_string_pos@_lcd^0,c
  2659   000C4A  0E01               	movlw	1
  2660   000C4C  6E47               	movwf	lcd_4bit_send_string_pos@row^0,c
  2661   000C4E  0E01               	movlw	1
  2662   000C50  6E48               	movwf	lcd_4bit_send_string_pos@column^0,c
  2663   000C52  0EDF               	movlw	low STR_16
  2664   000C54  6E49               	movwf	lcd_4bit_send_string_pos@str^0,c
  2665   000C56  0EFF               	movlw	high STR_16
  2666   000C58  6E4A               	movwf	(lcd_4bit_send_string_pos@str+1)^0,c
  2667   000C5A  ECBB  F007         	call	_lcd_4bit_send_string_pos	;wreg free
  2668   000C5E                     
  2669                           ;main.c: 106:         lcd_4bit_send_string_pos(&LCD_1 ,2 ,1 ,"1.Admin  2.Guest");
  2670   000C5E  0E73               	movlw	low _LCD_1
  2671   000C60  6E46               	movwf	lcd_4bit_send_string_pos@_lcd^0,c
  2672   000C62  0E02               	movlw	2
  2673   000C64  6E47               	movwf	lcd_4bit_send_string_pos@row^0,c
  2674   000C66  0E01               	movlw	1
  2675   000C68  6E48               	movwf	lcd_4bit_send_string_pos@column^0,c
  2676   000C6A  0E0F               	movlw	low STR_17
  2677   000C6C  6E49               	movwf	lcd_4bit_send_string_pos@str^0,c
  2678   000C6E  0EFF               	movlw	high STR_17
  2679   000C70  6E4A               	movwf	(lcd_4bit_send_string_pos@str+1)^0,c
  2680   000C72  ECBB  F007         	call	_lcd_4bit_send_string_pos	;wreg free
  2681   000C76                     
  2682                           ;main.c: 107:         delay_ms(250);
  2683   000C76  0EFA               	movlw	250
  2684   000C78  6E32               	movwf	delay_ms@val^0,c
  2685   000C7A  0E00               	movlw	0
  2686   000C7C  6E33               	movwf	(delay_ms@val+1)^0,c
  2687   000C7E  0E00               	movlw	0
  2688   000C80  6E34               	movwf	(delay_ms@val+2)^0,c
  2689   000C82  0E00               	movlw	0
  2690   000C84  6E35               	movwf	(delay_ms@val+3)^0,c
  2691   000C86  EC7C  F008         	call	_delay_ms	;wreg free
  2692                           
  2693                           ;main.c: 109:     while((value != '1') && (value != '2')){
  2694   000C8A  EF4D  F006         	goto	l5686
  2695   000C8E                     l5684:
  2696                           
  2697                           ;main.c: 110:         keypad_get_value(&keypad_1, &value);
  2698   000C8E  0E8A               	movlw	low _keypad_1
  2699   000C90  6E3A               	movwf	keypad_get_value@_keypad^0,c
  2700   000C92  0E5A               	movlw	low SelectAdminOrGuest@value
  2701   000C94  6E3B               	movwf	keypad_get_value@value^0,c
  2702   000C96  EC3C  F005         	call	_keypad_get_value	;wreg free
  2703   000C9A                     l5686:
  2704                           
  2705                           ;main.c: 109:     while((value != '1') && (value != '2')){
  2706   000C9A  0E31               	movlw	49
  2707   000C9C  185A               	xorwf	SelectAdminOrGuest@value^0,w,c
  2708   000C9E  B4D8               	btfsc	status,2,c
  2709   000CA0  EF54  F006         	goto	u3611
  2710   000CA4  EF56  F006         	goto	u3610
  2711   000CA8                     u3611:
  2712   000CA8  EF69  F006         	goto	l5694
  2713   000CAC                     u3610:
  2714   000CAC  0E32               	movlw	50
  2715   000CAE  185A               	xorwf	SelectAdminOrGuest@value^0,w,c
  2716   000CB0  A4D8               	btfss	status,2,c
  2717   000CB2  EF5D  F006         	goto	u3621
  2718   000CB6  EF5F  F006         	goto	u3620
  2719   000CBA                     u3621:
  2720   000CBA  EF47  F006         	goto	l5684
  2721   000CBE                     u3620:
  2722   000CBE  EF69  F006         	goto	l5694
  2723   000CC2                     l5690:
  2724   000CC2  EC7D  F001         	call	_AdminLogin	;wreg free
  2725   000CC6  EF7E  F006         	goto	l1526
  2726   000CCA                     l5692:
  2727   000CCA  EC09  F000         	call	_GuestLogin	;wreg free
  2728   000CCE  EF7E  F006         	goto	l1526
  2729   000CD2                     l5694:
  2730   000CD2  505A               	movf	SelectAdminOrGuest@value^0,w,c
  2731   000CD4  6E58               	movwf	??_SelectAdminOrGuest^0,c
  2732   000CD6  6A59               	clrf	(??_SelectAdminOrGuest+1)^0,c
  2733                           
  2734                           ; Switch on 2 bytes has been partitioned into a top level switch of size 1, and 1 sub-sw
      +                          itches
  2735                           ; Switch size 1, requested type "simple"
  2736                           ; Number of cases is 1, Range of values is 0 to 0
  2737                           ; switch strategies available:
  2738                           ; Name         Instructions Cycles
  2739                           ; simple_byte            4     3 (average)
  2740                           ;	Chosen strategy is simple_byte
  2741   000CD8  5059               	movf	(??_SelectAdminOrGuest+1)^0,w,c
  2742   000CDA  0A00               	xorlw	0	; case 0
  2743   000CDC  B4D8               	btfsc	status,2,c
  2744   000CDE  EF73  F006         	goto	l5930
  2745   000CE2  EF7E  F006         	goto	l1526
  2746   000CE6                     l5930:
  2747                           
  2748                           ; Switch size 1, requested type "simple"
  2749                           ; Number of cases is 2, Range of values is 49 to 50
  2750                           ; switch strategies available:
  2751                           ; Name         Instructions Cycles
  2752                           ; simple_byte            7     4 (average)
  2753                           ;	Chosen strategy is simple_byte
  2754   000CE6  5058               	movf	??_SelectAdminOrGuest^0,w,c
  2755   000CE8  0A31               	xorlw	49	; case 49
  2756   000CEA  B4D8               	btfsc	status,2,c
  2757   000CEC  EF61  F006         	goto	l5690
  2758   000CF0  0A03               	xorlw	3	; case 50
  2759   000CF2  B4D8               	btfsc	status,2,c
  2760   000CF4  EF65  F006         	goto	l5692
  2761   000CF8  EF7E  F006         	goto	l1526
  2762   000CFC                     l1526:
  2763   000CFC  0012               	return		;funcret
  2764   000CFE                     __end_of_SelectAdminOrGuest:
  2765                           	callstack 0
  2766                           
  2767 ;; *************** function _GuestLogin *****************
  2768 ;; Defined at:
  2769 ;;		line 192 in file "main.c"
  2770 ;; Parameters:    Size  Location     Type
  2771 ;;		None
  2772 ;; Auto vars:     Size  Location     Type
  2773 ;;  i               1   36[COMRAM] unsigned char 
  2774 ;;  i               1   35[COMRAM] unsigned char 
  2775 ;;  LoginPass       4   29[COMRAM] unsigned char [4]
  2776 ;;  password        4   25[COMRAM] unsigned char [4]
  2777 ;;  value           1   37[COMRAM] unsigned char 
  2778 ;;  tryAgain        1   34[COMRAM] unsigned char 
  2779 ;;  ShutDownValu    1   33[COMRAM] unsigned char 
  2780 ;; Return value:  Size  Location     Type
  2781 ;;                  1    wreg      void 
  2782 ;; Registers used:
  2783 ;;		wreg, fsr1l, fsr1h, fsr2l, fsr2h, status,2, status,0, tblptrl, tblptrh, tblptru, prodl, prodh, cstack
  2784 ;; Tracked objects:
  2785 ;;		On entry : 0/0
  2786 ;;		On exit  : 0/0
  2787 ;;		Unchanged: 0/0
  2788 ;; Data sizes:     COMRAM   BANK0   BANK1   BANK2   BANK3   BANK4   BANK5   BANK6   BANK7   BANK8   BANK9  BANK10  BANK1
      +1  BANK12  BANK13  BANK14  BANK15
  2789 ;;      Params:         0       0       0       0       0       0       0       0       0       0       0       0       
      +0       0       0       0       0
  2790 ;;      Locals:        13       0       0       0       0       0       0       0       0       0       0       0       
      +0       0       0       0       0
  2791 ;;      Temps:          0       0       0       0       0       0       0       0       0       0       0       0       
      +0       0       0       0       0
  2792 ;;      Totals:        13       0       0       0       0       0       0       0       0       0       0       0       
      +0       0       0       0       0
  2793 ;;Total ram usage:       13 bytes
  2794 ;; Hardware stack levels used: 1
  2795 ;; Hardware stack levels required when called: 8
  2796 ;; This function calls:
  2797 ;;		_EEPROM_Data_Read
  2798 ;;		_GuestControl
  2799 ;;		_StringCompare
  2800 ;;		_SystemShutDown
  2801 ;;		_delay_ms
  2802 ;;		_keypad_get_value
  2803 ;;		_lcd_4bit_send_char_data_pos
  2804 ;;		_lcd_4bit_send_command
  2805 ;;		_lcd_4bit_send_string_pos
  2806 ;; This function is called by:
  2807 ;;		_SelectAdminOrGuest
  2808 ;; This function uses a non-reentrant model
  2809 ;;
  2810                           
  2811                           	psect	text14
  2812   000012                     __ptext14:
  2813                           	callstack 0
  2814   000012                     _GuestLogin:
  2815                           	callstack 21
  2816   000012                     
  2817                           ;main.c: 194:     uint8 ShutDownValue = 0;
  2818   000012  0E00               	movlw	0
  2819   000014  6E53               	movwf	GuestLogin@ShutDownValue^0,c
  2820                           
  2821                           ;main.c: 195:     uint8 tryAgain = 3;
  2822   000016  0E03               	movlw	3
  2823   000018  6E54               	movwf	GuestLogin@tryAgain^0,c
  2824                           
  2825                           ;main.c: 196:     uint8 password[4];;main.c: 197:     uint8 LoginPass[4];;main.c: 199:  
      +                             for(uint8 i=0; i<4; i++){
  2826   00001A  0E00               	movlw	0
  2827   00001C  6E55               	movwf	GuestLogin@i^0,c
  2828   00001E                     l5494:
  2829                           
  2830                           ;main.c: 200:         EEPROM_Data_Read(0x1C+i, password+i);
  2831   00001E  0E1C               	movlw	28
  2832   000020  2455               	addwf	GuestLogin@i^0,w,c
  2833   000022  6E32               	movwf	EEPROM_Data_Read@Add^0,c
  2834   000024  6A33               	clrf	(EEPROM_Data_Read@Add+1)^0,c
  2835   000026  0E00               	movlw	0
  2836   000028  2233               	addwfc	(EEPROM_Data_Read@Add+1)^0,f,c
  2837   00002A  5055               	movf	GuestLogin@i^0,w,c
  2838   00002C  0F4B               	addlw	low GuestLogin@password
  2839   00002E  6E34               	movwf	EEPROM_Data_Read@Data^0,c
  2840   000030  EC2D  F00A         	call	_EEPROM_Data_Read	;wreg free
  2841   000034                     
  2842                           ;main.c: 201:     }
  2843   000034  2A55               	incf	GuestLogin@i^0,f,c
  2844   000036  0E03               	movlw	3
  2845   000038  6455               	cpfsgt	GuestLogin@i^0,c
  2846   00003A  EF21  F000         	goto	u3461
  2847   00003E  EF23  F000         	goto	u3460
  2848   000042                     u3461:
  2849   000042  EF0F  F000         	goto	l5494
  2850   000046                     u3460:
  2851   000046                     
  2852                           ;main.c: 202:     lcd_4bit_send_command(&LCD_1, 0x01);
  2853   000046  0E73               	movlw	low _LCD_1
  2854   000048  6E3D               	movwf	lcd_4bit_send_command@_lcd^0,c
  2855   00004A  0E01               	movlw	1
  2856   00004C  6E3E               	movwf	lcd_4bit_send_command@command^0,c
  2857   00004E  ECAB  F008         	call	_lcd_4bit_send_command	;wreg free
  2858   000052                     
  2859                           ;main.c: 203:     lcd_4bit_send_string_pos(&LCD_1 ,1 ,1 ,"Guest Login");
  2860   000052  0E73               	movlw	low _LCD_1
  2861   000054  6E46               	movwf	lcd_4bit_send_string_pos@_lcd^0,c
  2862   000056  0E01               	movlw	1
  2863   000058  6E47               	movwf	lcd_4bit_send_string_pos@row^0,c
  2864   00005A  0E01               	movlw	1
  2865   00005C  6E48               	movwf	lcd_4bit_send_string_pos@column^0,c
  2866   00005E  0E9B               	movlw	low STR_28
  2867   000060  6E49               	movwf	lcd_4bit_send_string_pos@str^0,c
  2868   000062  0EFF               	movlw	high STR_28
  2869   000064  6E4A               	movwf	(lcd_4bit_send_string_pos@str+1)^0,c
  2870   000066  ECBB  F007         	call	_lcd_4bit_send_string_pos	;wreg free
  2871   00006A                     
  2872                           ;main.c: 204:     lcd_4bit_send_string_pos(&LCD_1 ,2 ,1 ,"Pass:");
  2873   00006A  0E73               	movlw	low _LCD_1
  2874   00006C  6E46               	movwf	lcd_4bit_send_string_pos@_lcd^0,c
  2875   00006E  0E02               	movlw	2
  2876   000070  6E47               	movwf	lcd_4bit_send_string_pos@row^0,c
  2877   000072  0E01               	movlw	1
  2878   000074  6E48               	movwf	lcd_4bit_send_string_pos@column^0,c
  2879   000076  0E7D               	movlw	low (STR_9+6)
  2880   000078  6E49               	movwf	lcd_4bit_send_string_pos@str^0,c
  2881   00007A  0EFF               	movlw	high (STR_9+6)
  2882   00007C  6E4A               	movwf	(lcd_4bit_send_string_pos@str+1)^0,c
  2883   00007E  ECBB  F007         	call	_lcd_4bit_send_string_pos	;wreg free
  2884                           
  2885                           ;main.c: 205:     while(tryAgain){
  2886   000082  EF72  F001         	goto	l5584
  2887   000086                     l5506:
  2888                           
  2889                           ;main.c: 206:         for(uint8 i=0; i<4; i++){
  2890   000086  0E00               	movlw	0
  2891   000088  6E56               	movwf	GuestLogin@i_3478^0,c
  2892   00008A                     l5512:
  2893                           
  2894                           ;main.c: 207:             lcd_4bit_send_string_pos(&LCD_1 ,1 ,1 ,"Guest Login");
  2895   00008A  0E73               	movlw	low _LCD_1
  2896   00008C  6E46               	movwf	lcd_4bit_send_string_pos@_lcd^0,c
  2897   00008E  0E01               	movlw	1
  2898   000090  6E47               	movwf	lcd_4bit_send_string_pos@row^0,c
  2899   000092  0E01               	movlw	1
  2900   000094  6E48               	movwf	lcd_4bit_send_string_pos@column^0,c
  2901   000096  0E9B               	movlw	low STR_28
  2902   000098  6E49               	movwf	lcd_4bit_send_string_pos@str^0,c
  2903   00009A  0EFF               	movlw	high STR_28
  2904   00009C  6E4A               	movwf	(lcd_4bit_send_string_pos@str+1)^0,c
  2905   00009E  ECBB  F007         	call	_lcd_4bit_send_string_pos	;wreg free
  2906                           
  2907                           ;main.c: 208:             lcd_4bit_send_string_pos(&LCD_1 ,2 ,1 ,"Pass:");
  2908   0000A2  0E73               	movlw	low _LCD_1
  2909   0000A4  6E46               	movwf	lcd_4bit_send_string_pos@_lcd^0,c
  2910   0000A6  0E02               	movlw	2
  2911   0000A8  6E47               	movwf	lcd_4bit_send_string_pos@row^0,c
  2912   0000AA  0E01               	movlw	1
  2913   0000AC  6E48               	movwf	lcd_4bit_send_string_pos@column^0,c
  2914   0000AE  0E7D               	movlw	low (STR_9+6)
  2915   0000B0  6E49               	movwf	lcd_4bit_send_string_pos@str^0,c
  2916   0000B2  0EFF               	movlw	high (STR_9+6)
  2917   0000B4  6E4A               	movwf	(lcd_4bit_send_string_pos@str+1)^0,c
  2918   0000B6  ECBB  F007         	call	_lcd_4bit_send_string_pos	;wreg free
  2919                           
  2920                           ;main.c: 209:             lcd_4bit_send_string_pos(&LCD_1 ,2 ,16 ,"H");
  2921   0000BA  0E73               	movlw	low _LCD_1
  2922   0000BC  6E46               	movwf	lcd_4bit_send_string_pos@_lcd^0,c
  2923   0000BE  0E02               	movlw	2
  2924   0000C0  6E47               	movwf	lcd_4bit_send_string_pos@row^0,c
  2925   0000C2  0E10               	movlw	16
  2926   0000C4  6E48               	movwf	lcd_4bit_send_string_pos@column^0,c
  2927   0000C6  0EFC               	movlw	low STR_22
  2928   0000C8  6E49               	movwf	lcd_4bit_send_string_pos@str^0,c
  2929   0000CA  0EFF               	movlw	high STR_22
  2930   0000CC  6E4A               	movwf	(lcd_4bit_send_string_pos@str+1)^0,c
  2931   0000CE  ECBB  F007         	call	_lcd_4bit_send_string_pos	;wreg free
  2932   0000D2                     
  2933                           ;main.c: 210:             value = 0xFF;
  2934   0000D2  6857               	setf	GuestLogin@value^0,c
  2935   0000D4                     
  2936                           ;main.c: 211:             delay_ms(250);
  2937   0000D4  0EFA               	movlw	250
  2938   0000D6  6E32               	movwf	delay_ms@val^0,c
  2939   0000D8  0E00               	movlw	0
  2940   0000DA  6E33               	movwf	(delay_ms@val+1)^0,c
  2941   0000DC  0E00               	movlw	0
  2942   0000DE  6E34               	movwf	(delay_ms@val+2)^0,c
  2943   0000E0  0E00               	movlw	0
  2944   0000E2  6E35               	movwf	(delay_ms@val+3)^0,c
  2945   0000E4  EC7C  F008         	call	_delay_ms	;wreg free
  2946   0000E8                     
  2947                           ;main.c: 212:             lcd_4bit_send_char_data_pos(&LCD_1, 2, 6+i,'_');
  2948   0000E8  0E73               	movlw	low _LCD_1
  2949   0000EA  6E46               	movwf	lcd_4bit_send_char_data_pos@_lcd^0,c
  2950   0000EC  0E02               	movlw	2
  2951   0000EE  6E47               	movwf	lcd_4bit_send_char_data_pos@row^0,c
  2952   0000F0  5056               	movf	GuestLogin@i_3478^0,w,c
  2953   0000F2  0F06               	addlw	6
  2954   0000F4  6E48               	movwf	lcd_4bit_send_char_data_pos@column^0,c
  2955   0000F6  0E5F               	movlw	95
  2956   0000F8  6E49               	movwf	lcd_4bit_send_char_data_pos@data^0,c
  2957   0000FA  EC0F  F00A         	call	_lcd_4bit_send_char_data_pos	;wreg free
  2958                           
  2959                           ;main.c: 213:             while(value == 0xFF){
  2960   0000FE  EF87  F000         	goto	l5522
  2961   000102                     l5520:
  2962                           
  2963                           ;main.c: 214:                 keypad_get_value(&keypad_1, &value);
  2964   000102  0E8A               	movlw	low _keypad_1
  2965   000104  6E3A               	movwf	keypad_get_value@_keypad^0,c
  2966   000106  0E57               	movlw	low GuestLogin@value
  2967   000108  6E3B               	movwf	keypad_get_value@value^0,c
  2968   00010A  EC3C  F005         	call	_keypad_get_value	;wreg free
  2969   00010E                     l5522:
  2970                           
  2971                           ;main.c: 213:             while(value == 0xFF){
  2972   00010E  2857               	incf	GuestLogin@value^0,w,c
  2973   000110  B4D8               	btfsc	status,2,c
  2974   000112  EF8D  F000         	goto	u3471
  2975   000116  EF8F  F000         	goto	u3470
  2976   00011A                     u3471:
  2977   00011A  EF81  F000         	goto	l5520
  2978   00011E                     u3470:
  2979   00011E                     
  2980                           ;main.c: 217:             if(value == '#'){
  2981   00011E  0E23               	movlw	35
  2982   000120  1857               	xorwf	GuestLogin@value^0,w,c
  2983   000122  A4D8               	btfss	status,2,c
  2984   000124  EF96  F000         	goto	u3481
  2985   000128  EF98  F000         	goto	u3480
  2986   00012C                     u3481:
  2987   00012C  EF9A  F000         	goto	l5530
  2988   000130                     u3480:
  2989   000130  EF7C  F001         	goto	l1560
  2990   000134                     l5530:
  2991                           
  2992                           ;main.c: 220:             lcd_4bit_send_char_data_pos(&LCD_1, 2, 6+i, value);
  2993   000134  0E73               	movlw	low _LCD_1
  2994   000136  6E46               	movwf	lcd_4bit_send_char_data_pos@_lcd^0,c
  2995   000138  0E02               	movlw	2
  2996   00013A  6E47               	movwf	lcd_4bit_send_char_data_pos@row^0,c
  2997   00013C  5056               	movf	GuestLogin@i_3478^0,w,c
  2998   00013E  0F06               	addlw	6
  2999   000140  6E48               	movwf	lcd_4bit_send_char_data_pos@column^0,c
  3000   000142  C057  F049         	movff	GuestLogin@value,lcd_4bit_send_char_data_pos@data
  3001   000146  EC0F  F00A         	call	_lcd_4bit_send_char_data_pos	;wreg free
  3002   00014A                     
  3003                           ;main.c: 221:             delay_ms(250);
  3004   00014A  0EFA               	movlw	250
  3005   00014C  6E32               	movwf	delay_ms@val^0,c
  3006   00014E  0E00               	movlw	0
  3007   000150  6E33               	movwf	(delay_ms@val+1)^0,c
  3008   000152  0E00               	movlw	0
  3009   000154  6E34               	movwf	(delay_ms@val+2)^0,c
  3010   000156  0E00               	movlw	0
  3011   000158  6E35               	movwf	(delay_ms@val+3)^0,c
  3012   00015A  EC7C  F008         	call	_delay_ms	;wreg free
  3013   00015E                     
  3014                           ;main.c: 222:             lcd_4bit_send_char_data_pos(&LCD_1, 2, 6+i, '*');
  3015   00015E  0E73               	movlw	low _LCD_1
  3016   000160  6E46               	movwf	lcd_4bit_send_char_data_pos@_lcd^0,c
  3017   000162  0E02               	movlw	2
  3018   000164  6E47               	movwf	lcd_4bit_send_char_data_pos@row^0,c
  3019   000166  5056               	movf	GuestLogin@i_3478^0,w,c
  3020   000168  0F06               	addlw	6
  3021   00016A  6E48               	movwf	lcd_4bit_send_char_data_pos@column^0,c
  3022   00016C  0E2A               	movlw	42
  3023   00016E  6E49               	movwf	lcd_4bit_send_char_data_pos@data^0,c
  3024   000170  EC0F  F00A         	call	_lcd_4bit_send_char_data_pos	;wreg free
  3025   000174                     
  3026                           ;main.c: 223:             LoginPass[i] = value;
  3027   000174  5056               	movf	GuestLogin@i_3478^0,w,c
  3028   000176  0F4F               	addlw	low GuestLogin@LoginPass
  3029   000178  6ED9               	movwf	fsr2l,c
  3030   00017A  6ADA               	clrf	fsr2h,c
  3031   00017C  C057  FFDF         	movff	GuestLogin@value,indf2
  3032   000180                     
  3033                           ;main.c: 224:         }
  3034   000180  2A56               	incf	GuestLogin@i_3478^0,f,c
  3035   000182  0E03               	movlw	3
  3036   000184  6456               	cpfsgt	GuestLogin@i_3478^0,c
  3037   000186  EFC7  F000         	goto	u3491
  3038   00018A  EFC9  F000         	goto	u3490
  3039   00018E                     u3491:
  3040   00018E  EF45  F000         	goto	l5512
  3041   000192                     u3490:
  3042   000192                     
  3043                           ;main.c: 225:         value = StringCompare(LoginPass, password, 4);
  3044   000192  0E4F               	movlw	low GuestLogin@LoginPass
  3045   000194  6E32               	movwf	StringCompare@str1^0,c
  3046   000196  0E4B               	movlw	low GuestLogin@password
  3047   000198  6E33               	movwf	StringCompare@str2^0,c
  3048   00019A  0E04               	movlw	4
  3049   00019C  6E34               	movwf	StringCompare@Length^0,c
  3050   00019E  ECC9  F009         	call	_StringCompare	;wreg free
  3051   0001A2  6E57               	movwf	GuestLogin@value^0,c
  3052   0001A4                     
  3053                           ;main.c: 226:         if(value){
  3054   0001A4  5057               	movf	GuestLogin@value^0,w,c
  3055   0001A6  B4D8               	btfsc	status,2,c
  3056   0001A8  EFD8  F000         	goto	u3501
  3057   0001AC  EFDA  F000         	goto	u3500
  3058   0001B0                     u3501:
  3059   0001B0  EFF8  F000         	goto	l5554
  3060   0001B4                     u3500:
  3061   0001B4                     
  3062                           ;main.c: 227:             lcd_4bit_send_command(&LCD_1, 0x01);
  3063   0001B4  0E73               	movlw	low _LCD_1
  3064   0001B6  6E3D               	movwf	lcd_4bit_send_command@_lcd^0,c
  3065   0001B8  0E01               	movlw	1
  3066   0001BA  6E3E               	movwf	lcd_4bit_send_command@command^0,c
  3067   0001BC  ECAB  F008         	call	_lcd_4bit_send_command	;wreg free
  3068   0001C0                     
  3069                           ;main.c: 228:             lcd_4bit_send_string_pos(&LCD_1 ,1 ,1 ,"Login Success");
  3070   0001C0  0E73               	movlw	low _LCD_1
  3071   0001C2  6E46               	movwf	lcd_4bit_send_string_pos@_lcd^0,c
  3072   0001C4  0E01               	movlw	1
  3073   0001C6  6E47               	movwf	lcd_4bit_send_string_pos@row^0,c
  3074   0001C8  0E01               	movlw	1
  3075   0001CA  6E48               	movwf	lcd_4bit_send_string_pos@column^0,c
  3076   0001CC  0E5C               	movlw	low STR_23
  3077   0001CE  6E49               	movwf	lcd_4bit_send_string_pos@str^0,c
  3078   0001D0  0EFF               	movlw	high STR_23
  3079   0001D2  6E4A               	movwf	(lcd_4bit_send_string_pos@str+1)^0,c
  3080   0001D4  ECBB  F007         	call	_lcd_4bit_send_string_pos	;wreg free
  3081   0001D8                     
  3082                           ;main.c: 229:             delay_ms(1000);
  3083   0001D8  0EE8               	movlw	232
  3084   0001DA  6E32               	movwf	delay_ms@val^0,c
  3085   0001DC  0E03               	movlw	3
  3086   0001DE  6E33               	movwf	(delay_ms@val+1)^0,c
  3087   0001E0  0E00               	movlw	0
  3088   0001E2  6E34               	movwf	(delay_ms@val+2)^0,c
  3089   0001E4  0E00               	movlw	0
  3090   0001E6  6E35               	movwf	(delay_ms@val+3)^0,c
  3091   0001E8  EC7C  F008         	call	_delay_ms	;wreg free
  3092                           
  3093                           ;main.c: 230:             break;
  3094   0001EC  EF7A  F001         	goto	l5586
  3095   0001F0                     l5554:
  3096                           
  3097                           ;main.c: 233:             lcd_4bit_send_command(&LCD_1, 0x01);
  3098   0001F0  0E73               	movlw	low _LCD_1
  3099   0001F2  6E3D               	movwf	lcd_4bit_send_command@_lcd^0,c
  3100   0001F4  0E01               	movlw	1
  3101   0001F6  6E3E               	movwf	lcd_4bit_send_command@command^0,c
  3102   0001F8  ECAB  F008         	call	_lcd_4bit_send_command	;wreg free
  3103   0001FC                     
  3104                           ;main.c: 234:             lcd_4bit_send_string_pos(&LCD_1 ,1 ,1 ,"Wrong Pass");
  3105   0001FC  0E73               	movlw	low _LCD_1
  3106   0001FE  6E46               	movwf	lcd_4bit_send_string_pos@_lcd^0,c
  3107   000200  0E01               	movlw	1
  3108   000202  6E47               	movwf	lcd_4bit_send_string_pos@row^0,c
  3109   000204  0E01               	movlw	1
  3110   000206  6E48               	movwf	lcd_4bit_send_string_pos@column^0,c
  3111   000208  0ECA               	movlw	low STR_24
  3112   00020A  6E49               	movwf	lcd_4bit_send_string_pos@str^0,c
  3113   00020C  0EFF               	movlw	high STR_24
  3114   00020E  6E4A               	movwf	(lcd_4bit_send_string_pos@str+1)^0,c
  3115   000210  ECBB  F007         	call	_lcd_4bit_send_string_pos	;wreg free
  3116   000214                     
  3117                           ;main.c: 235:             lcd_4bit_send_string_pos(&LCD_1 ,2 ,1 ,"Try Again");
  3118   000214  0E73               	movlw	low _LCD_1
  3119   000216  6E46               	movwf	lcd_4bit_send_string_pos@_lcd^0,c
  3120   000218  0E02               	movlw	2
  3121   00021A  6E47               	movwf	lcd_4bit_send_string_pos@row^0,c
  3122   00021C  0E01               	movlw	1
  3123   00021E  6E48               	movwf	lcd_4bit_send_string_pos@column^0,c
  3124   000220  0ED5               	movlw	low STR_25
  3125   000222  6E49               	movwf	lcd_4bit_send_string_pos@str^0,c
  3126   000224  0EFF               	movlw	high STR_25
  3127   000226  6E4A               	movwf	(lcd_4bit_send_string_pos@str+1)^0,c
  3128   000228  ECBB  F007         	call	_lcd_4bit_send_string_pos	;wreg free
  3129                           
  3130                           ;main.c: 236:             lcd_4bit_send_char_data_pos(&LCD_1 ,2 ,11 ,tryAgain+0x2F);
  3131   00022C  0E73               	movlw	low _LCD_1
  3132   00022E  6E46               	movwf	lcd_4bit_send_char_data_pos@_lcd^0,c
  3133   000230  0E02               	movlw	2
  3134   000232  6E47               	movwf	lcd_4bit_send_char_data_pos@row^0,c
  3135   000234  0E0B               	movlw	11
  3136   000236  6E48               	movwf	lcd_4bit_send_char_data_pos@column^0,c
  3137   000238  5054               	movf	GuestLogin@tryAgain^0,w,c
  3138   00023A  0F2F               	addlw	47
  3139   00023C  6E49               	movwf	lcd_4bit_send_char_data_pos@data^0,c
  3140   00023E  EC0F  F00A         	call	_lcd_4bit_send_char_data_pos	;wreg free
  3141   000242                     
  3142                           ;main.c: 237:             delay_ms(500);
  3143   000242  0EF4               	movlw	244
  3144   000244  6E32               	movwf	delay_ms@val^0,c
  3145   000246  0E01               	movlw	1
  3146   000248  6E33               	movwf	(delay_ms@val+1)^0,c
  3147   00024A  0E00               	movlw	0
  3148   00024C  6E34               	movwf	(delay_ms@val+2)^0,c
  3149   00024E  0E00               	movlw	0
  3150   000250  6E35               	movwf	(delay_ms@val+3)^0,c
  3151   000252  EC7C  F008         	call	_delay_ms	;wreg free
  3152   000256                     
  3153                           ;main.c: 238:             lcd_4bit_send_string_pos(&LCD_1 ,2 ,6 ,"      ");
  3154   000256  0E73               	movlw	low _LCD_1
  3155   000258  6E46               	movwf	lcd_4bit_send_string_pos@_lcd^0,c
  3156   00025A  0E02               	movlw	2
  3157   00025C  6E47               	movwf	lcd_4bit_send_string_pos@row^0,c
  3158   00025E  0E06               	movlw	6
  3159   000260  6E48               	movwf	lcd_4bit_send_string_pos@column^0,c
  3160   000262  0EE8               	movlw	low STR_26
  3161   000264  6E49               	movwf	lcd_4bit_send_string_pos@str^0,c
  3162   000266  0EFF               	movlw	high STR_26
  3163   000268  6E4A               	movwf	(lcd_4bit_send_string_pos@str+1)^0,c
  3164   00026A  ECBB  F007         	call	_lcd_4bit_send_string_pos	;wreg free
  3165   00026E                     
  3166                           ;main.c: 239:             tryAgain--;
  3167   00026E  0654               	decf	GuestLogin@tryAgain^0,f,c
  3168   000270                     
  3169                           ;main.c: 240:             if(tryAgain == 0){
  3170   000270  5054               	movf	GuestLogin@tryAgain^0,w,c
  3171   000272  A4D8               	btfss	status,2,c
  3172   000274  EF3E  F001         	goto	u3511
  3173   000278  EF40  F001         	goto	u3510
  3174   00027C                     u3511:
  3175   00027C  EF72  F001         	goto	l1564
  3176   000280                     u3510:
  3177   000280                     
  3178                           ;main.c: 241:                 tryAgain = 3;
  3179   000280  0E03               	movlw	3
  3180   000282  6E54               	movwf	GuestLogin@tryAgain^0,c
  3181   000284                     
  3182                           ;main.c: 242:                 ShutDownValue++;
  3183   000284  2A53               	incf	GuestLogin@ShutDownValue^0,f,c
  3184   000286                     
  3185                           ;main.c: 244:                 if(ShutDownValue == 3){
  3186   000286  0E03               	movlw	3
  3187   000288  1853               	xorwf	GuestLogin@ShutDownValue^0,w,c
  3188   00028A  A4D8               	btfss	status,2,c
  3189   00028C  EF4A  F001         	goto	u3521
  3190   000290  EF4C  F001         	goto	u3520
  3191   000294                     u3521:
  3192   000294  EF4E  F001         	goto	l5576
  3193   000298                     u3520:
  3194   000298                     
  3195                           ;main.c: 245:                     SystemShutDown();
  3196   000298  EC47  F00A         	call	_SystemShutDown	;wreg free
  3197   00029C                     l5576:
  3198                           
  3199                           ;main.c: 247:                 lcd_4bit_send_command(&LCD_1, 0x01);
  3200   00029C  0E73               	movlw	low _LCD_1
  3201   00029E  6E3D               	movwf	lcd_4bit_send_command@_lcd^0,c
  3202   0002A0  0E01               	movlw	1
  3203   0002A2  6E3E               	movwf	lcd_4bit_send_command@command^0,c
  3204   0002A4  ECAB  F008         	call	_lcd_4bit_send_command	;wreg free
  3205   0002A8                     
  3206                           ;main.c: 248:                 lcd_4bit_send_string_pos(&LCD_1 ,1 ,1 ,"Waiting 5 Sec");
  3207   0002A8  0E73               	movlw	low _LCD_1
  3208   0002AA  6E46               	movwf	lcd_4bit_send_string_pos@_lcd^0,c
  3209   0002AC  0E01               	movlw	1
  3210   0002AE  6E47               	movwf	lcd_4bit_send_string_pos@row^0,c
  3211   0002B0  0E01               	movlw	1
  3212   0002B2  6E48               	movwf	lcd_4bit_send_string_pos@column^0,c
  3213   0002B4  0E4E               	movlw	low STR_27
  3214   0002B6  6E49               	movwf	lcd_4bit_send_string_pos@str^0,c
  3215   0002B8  0EFF               	movlw	high STR_27
  3216   0002BA  6E4A               	movwf	(lcd_4bit_send_string_pos@str+1)^0,c
  3217   0002BC  ECBB  F007         	call	_lcd_4bit_send_string_pos	;wreg free
  3218   0002C0                     
  3219                           ;main.c: 249:                 delay_ms(5000);
  3220   0002C0  0E88               	movlw	136
  3221   0002C2  6E32               	movwf	delay_ms@val^0,c
  3222   0002C4  0E13               	movlw	19
  3223   0002C6  6E33               	movwf	(delay_ms@val+1)^0,c
  3224   0002C8  0E00               	movlw	0
  3225   0002CA  6E34               	movwf	(delay_ms@val+2)^0,c
  3226   0002CC  0E00               	movlw	0
  3227   0002CE  6E35               	movwf	(delay_ms@val+3)^0,c
  3228   0002D0  EC7C  F008         	call	_delay_ms	;wreg free
  3229   0002D4                     
  3230                           ;main.c: 250:                 lcd_4bit_send_command(&LCD_1, 0x01);
  3231   0002D4  0E73               	movlw	low _LCD_1
  3232   0002D6  6E3D               	movwf	lcd_4bit_send_command@_lcd^0,c
  3233   0002D8  0E01               	movlw	1
  3234   0002DA  6E3E               	movwf	lcd_4bit_send_command@command^0,c
  3235   0002DC  ECAB  F008         	call	_lcd_4bit_send_command	;wreg free
  3236                           
  3237                           ;main.c: 251:             }else{}
  3238   0002E0  EF72  F001         	goto	l5584
  3239   0002E4                     l1564:
  3240   0002E4                     l5584:
  3241                           
  3242                           ;main.c: 205:     while(tryAgain){
  3243   0002E4  5054               	movf	GuestLogin@tryAgain^0,w,c
  3244   0002E6  A4D8               	btfss	status,2,c
  3245   0002E8  EF78  F001         	goto	u3531
  3246   0002EC  EF7A  F001         	goto	u3530
  3247   0002F0                     u3531:
  3248   0002F0  EF43  F000         	goto	l5506
  3249   0002F4                     u3530:
  3250   0002F4                     l5586:
  3251                           
  3252                           ;main.c: 254:     GuestControl();
  3253   0002F4  EC7F  F009         	call	_GuestControl	;wreg free
  3254   0002F8                     l1560:
  3255   0002F8  0012               	return		;funcret
  3256   0002FA                     __end_of_GuestLogin:
  3257                           	callstack 0
  3258                           
  3259 ;; *************** function _GuestControl *****************
  3260 ;; Defined at:
  3261 ;;		line 288 in file "main.c"
  3262 ;; Parameters:    Size  Location     Type
  3263 ;;		None
  3264 ;; Auto vars:     Size  Location     Type
  3265 ;;		None
  3266 ;; Return value:  Size  Location     Type
  3267 ;;                  1    wreg      void 
  3268 ;; Registers used:
  3269 ;;		wreg, fsr2l, fsr2h, status,2, status,0, tblptrl, tblptrh, tblptru, prodl, prodh, cstack
  3270 ;; Tracked objects:
  3271 ;;		On entry : 0/0
  3272 ;;		On exit  : 0/0
  3273 ;;		Unchanged: 0/0
  3274 ;; Data sizes:     COMRAM   BANK0   BANK1   BANK2   BANK3   BANK4   BANK5   BANK6   BANK7   BANK8   BANK9  BANK10  BANK1
      +1  BANK12  BANK13  BANK14  BANK15
  3275 ;;      Params:         0       0       0       0       0       0       0       0       0       0       0       0       
      +0       0       0       0       0
  3276 ;;      Locals:         0       0       0       0       0       0       0       0       0       0       0       0       
      +0       0       0       0       0
  3277 ;;      Temps:          0       0       0       0       0       0       0       0       0       0       0       0       
      +0       0       0       0       0
  3278 ;;      Totals:         0       0       0       0       0       0       0       0       0       0       0       0       
      +0       0       0       0       0
  3279 ;;Total ram usage:        0 bytes
  3280 ;; Hardware stack levels used: 1
  3281 ;; Hardware stack levels required when called: 7
  3282 ;; This function calls:
  3283 ;;		_lcd_4bit_send_command
  3284 ;;		_lcd_4bit_send_string_pos
  3285 ;;		_led_turn_on
  3286 ;; This function is called by:
  3287 ;;		_GuestLogin
  3288 ;; This function uses a non-reentrant model
  3289 ;;
  3290                           
  3291                           	psect	text15
  3292   0012FE                     __ptext15:
  3293                           	callstack 0
  3294   0012FE                     _GuestControl:
  3295                           	callstack 21
  3296   0012FE                     
  3297                           ;main.c: 290:         lcd_4bit_send_command(&LCD_1, 0x01);
  3298   0012FE  0E73               	movlw	low _LCD_1
  3299   001300  6E3D               	movwf	lcd_4bit_send_command@_lcd^0,c
  3300   001302  0E01               	movlw	1
  3301   001304  6E3E               	movwf	lcd_4bit_send_command@command^0,c
  3302   001306  ECAB  F008         	call	_lcd_4bit_send_command	;wreg free
  3303   00130A                     
  3304                           ;main.c: 291:         lcd_4bit_send_string_pos(&LCD_1 ,1 ,1 ,"Guest Start");
  3305   00130A  0E73               	movlw	low _LCD_1
  3306   00130C  6E46               	movwf	lcd_4bit_send_string_pos@_lcd^0,c
  3307   00130E  0E01               	movlw	1
  3308   001310  6E47               	movwf	lcd_4bit_send_string_pos@row^0,c
  3309   001312  0E01               	movlw	1
  3310   001314  6E48               	movwf	lcd_4bit_send_string_pos@column^0,c
  3311   001316  0EB3               	movlw	low STR_40
  3312   001318  6E49               	movwf	lcd_4bit_send_string_pos@str^0,c
  3313   00131A  0EFF               	movlw	high STR_40
  3314   00131C  6E4A               	movwf	(lcd_4bit_send_string_pos@str+1)^0,c
  3315   00131E  ECBB  F007         	call	_lcd_4bit_send_string_pos	;wreg free
  3316   001322                     
  3317                           ;main.c: 292:         lcd_4bit_send_string_pos(&LCD_1 ,2 ,1 ,"Control Here");
  3318   001322  0E73               	movlw	low _LCD_1
  3319   001324  6E46               	movwf	lcd_4bit_send_string_pos@_lcd^0,c
  3320   001326  0E02               	movlw	2
  3321   001328  6E47               	movwf	lcd_4bit_send_string_pos@row^0,c
  3322   00132A  0E01               	movlw	1
  3323   00132C  6E48               	movwf	lcd_4bit_send_string_pos@column^0,c
  3324   00132E  0E6A               	movlw	low STR_39
  3325   001330  6E49               	movwf	lcd_4bit_send_string_pos@str^0,c
  3326   001332  0EFF               	movlw	high STR_39
  3327   001334  6E4A               	movwf	(lcd_4bit_send_string_pos@str+1)^0,c
  3328   001336  ECBB  F007         	call	_lcd_4bit_send_string_pos	;wreg free
  3329                           
  3330                           ;main.c: 293:         led_turn_on(&GuestLed);
  3331   00133A  0E7A               	movlw	low _GuestLed
  3332   00133C  6E3A               	movwf	led_turn_on@led^0,c
  3333   00133E  EC53  F007         	call	_led_turn_on	;wreg free
  3334   001342                     l1589:
  3335   001342  EFA1  F009         	goto	l1589
  3336   001346  0012               	return		;funcret
  3337   001348                     __end_of_GuestControl:
  3338                           	callstack 0
  3339                           
  3340 ;; *************** function _AdminLogin *****************
  3341 ;; Defined at:
  3342 ;;		line 122 in file "main.c"
  3343 ;; Parameters:    Size  Location     Type
  3344 ;;		None
  3345 ;; Auto vars:     Size  Location     Type
  3346 ;;  i               1   36[COMRAM] unsigned char 
  3347 ;;  i               1   35[COMRAM] unsigned char 
  3348 ;;  LoginPass       4   29[COMRAM] unsigned char [4]
  3349 ;;  password        4   25[COMRAM] unsigned char [4]
  3350 ;;  value           1   37[COMRAM] unsigned char 
  3351 ;;  tryAgain        1   34[COMRAM] unsigned char 
  3352 ;;  ShutDownValu    1   33[COMRAM] unsigned char 
  3353 ;; Return value:  Size  Location     Type
  3354 ;;                  1    wreg      void 
  3355 ;; Registers used:
  3356 ;;		wreg, fsr1l, fsr1h, fsr2l, fsr2h, status,2, status,0, tblptrl, tblptrh, tblptru, prodl, prodh, cstack
  3357 ;; Tracked objects:
  3358 ;;		On entry : 0/0
  3359 ;;		On exit  : 0/0
  3360 ;;		Unchanged: 0/0
  3361 ;; Data sizes:     COMRAM   BANK0   BANK1   BANK2   BANK3   BANK4   BANK5   BANK6   BANK7   BANK8   BANK9  BANK10  BANK1
      +1  BANK12  BANK13  BANK14  BANK15
  3362 ;;      Params:         0       0       0       0       0       0       0       0       0       0       0       0       
      +0       0       0       0       0
  3363 ;;      Locals:        13       0       0       0       0       0       0       0       0       0       0       0       
      +0       0       0       0       0
  3364 ;;      Temps:          0       0       0       0       0       0       0       0       0       0       0       0       
      +0       0       0       0       0
  3365 ;;      Totals:        13       0       0       0       0       0       0       0       0       0       0       0       
      +0       0       0       0       0
  3366 ;;Total ram usage:       13 bytes
  3367 ;; Hardware stack levels used: 1
  3368 ;; Hardware stack levels required when called: 8
  3369 ;; This function calls:
  3370 ;;		_AdminControl
  3371 ;;		_EEPROM_Data_Read
  3372 ;;		_StringCompare
  3373 ;;		_SystemShutDown
  3374 ;;		_delay_ms
  3375 ;;		_keypad_get_value
  3376 ;;		_lcd_4bit_send_char_data_pos
  3377 ;;		_lcd_4bit_send_command
  3378 ;;		_lcd_4bit_send_string_pos
  3379 ;; This function is called by:
  3380 ;;		_SelectAdminOrGuest
  3381 ;; This function uses a non-reentrant model
  3382 ;;
  3383                           
  3384                           	psect	text16
  3385   0002FA                     __ptext16:
  3386                           	callstack 0
  3387   0002FA                     _AdminLogin:
  3388                           	callstack 21
  3389   0002FA                     
  3390                           ;main.c: 124:     uint8 ShutDownValue = 0;
  3391   0002FA  0E00               	movlw	0
  3392   0002FC  6E53               	movwf	AdminLogin@ShutDownValue^0,c
  3393                           
  3394                           ;main.c: 125:     uint8 tryAgain = 3;
  3395   0002FE  0E03               	movlw	3
  3396   000300  6E54               	movwf	AdminLogin@tryAgain^0,c
  3397                           
  3398                           ;main.c: 126:     uint8 password[4];;main.c: 127:     uint8 LoginPass[4];;main.c: 129:  
      +                             for(uint8 i=0; i<4; i++){
  3399   000302  0E00               	movlw	0
  3400   000304  6E55               	movwf	AdminLogin@i^0,c
  3401   000306                     l5392:
  3402                           
  3403                           ;main.c: 130:         EEPROM_Data_Read(0x18+i, password+i);
  3404   000306  0E18               	movlw	24
  3405   000308  2455               	addwf	AdminLogin@i^0,w,c
  3406   00030A  6E32               	movwf	EEPROM_Data_Read@Add^0,c
  3407   00030C  6A33               	clrf	(EEPROM_Data_Read@Add+1)^0,c
  3408   00030E  0E00               	movlw	0
  3409   000310  2233               	addwfc	(EEPROM_Data_Read@Add+1)^0,f,c
  3410   000312  5055               	movf	AdminLogin@i^0,w,c
  3411   000314  0F4B               	addlw	low AdminLogin@password
  3412   000316  6E34               	movwf	EEPROM_Data_Read@Data^0,c
  3413   000318  EC2D  F00A         	call	_EEPROM_Data_Read	;wreg free
  3414   00031C                     
  3415                           ;main.c: 131:     }
  3416   00031C  2A55               	incf	AdminLogin@i^0,f,c
  3417   00031E  0E03               	movlw	3
  3418   000320  6455               	cpfsgt	AdminLogin@i^0,c
  3419   000322  EF95  F001         	goto	u3381
  3420   000326  EF97  F001         	goto	u3380
  3421   00032A                     u3381:
  3422   00032A  EF83  F001         	goto	l5392
  3423   00032E                     u3380:
  3424   00032E                     
  3425                           ;main.c: 132:     lcd_4bit_send_command(&LCD_1, 0x01);
  3426   00032E  0E73               	movlw	low _LCD_1
  3427   000330  6E3D               	movwf	lcd_4bit_send_command@_lcd^0,c
  3428   000332  0E01               	movlw	1
  3429   000334  6E3E               	movwf	lcd_4bit_send_command@command^0,c
  3430   000336  ECAB  F008         	call	_lcd_4bit_send_command	;wreg free
  3431   00033A                     
  3432                           ;main.c: 133:     lcd_4bit_send_string_pos(&LCD_1 ,1 ,1 ,"Admin Login");
  3433   00033A  0E73               	movlw	low _LCD_1
  3434   00033C  6E46               	movwf	lcd_4bit_send_string_pos@_lcd^0,c
  3435   00033E  0E01               	movlw	1
  3436   000340  6E47               	movwf	lcd_4bit_send_string_pos@row^0,c
  3437   000342  0E01               	movlw	1
  3438   000344  6E48               	movwf	lcd_4bit_send_string_pos@column^0,c
  3439   000346  0E8F               	movlw	low STR_18
  3440   000348  6E49               	movwf	lcd_4bit_send_string_pos@str^0,c
  3441   00034A  0EFF               	movlw	high STR_18
  3442   00034C  6E4A               	movwf	(lcd_4bit_send_string_pos@str+1)^0,c
  3443   00034E  ECBB  F007         	call	_lcd_4bit_send_string_pos	;wreg free
  3444   000352                     
  3445                           ;main.c: 134:     lcd_4bit_send_string_pos(&LCD_1 ,2 ,1 ,"Pass:");
  3446   000352  0E73               	movlw	low _LCD_1
  3447   000354  6E46               	movwf	lcd_4bit_send_string_pos@_lcd^0,c
  3448   000356  0E02               	movlw	2
  3449   000358  6E47               	movwf	lcd_4bit_send_string_pos@row^0,c
  3450   00035A  0E01               	movlw	1
  3451   00035C  6E48               	movwf	lcd_4bit_send_string_pos@column^0,c
  3452   00035E  0E7D               	movlw	low (STR_9+6)
  3453   000360  6E49               	movwf	lcd_4bit_send_string_pos@str^0,c
  3454   000362  0EFF               	movlw	high (STR_9+6)
  3455   000364  6E4A               	movwf	(lcd_4bit_send_string_pos@str+1)^0,c
  3456   000366  ECBB  F007         	call	_lcd_4bit_send_string_pos	;wreg free
  3457                           
  3458                           ;main.c: 135:     while(tryAgain){
  3459   00036A  EFE6  F002         	goto	l5482
  3460   00036E                     l5404:
  3461                           
  3462                           ;main.c: 137:         for(uint8 i=0; i<4; i++){
  3463   00036E  0E00               	movlw	0
  3464   000370  6E56               	movwf	AdminLogin@i_3460^0,c
  3465   000372                     l5410:
  3466                           
  3467                           ;main.c: 138:             lcd_4bit_send_string_pos(&LCD_1 ,1 ,1 ,"Admin Login");
  3468   000372  0E73               	movlw	low _LCD_1
  3469   000374  6E46               	movwf	lcd_4bit_send_string_pos@_lcd^0,c
  3470   000376  0E01               	movlw	1
  3471   000378  6E47               	movwf	lcd_4bit_send_string_pos@row^0,c
  3472   00037A  0E01               	movlw	1
  3473   00037C  6E48               	movwf	lcd_4bit_send_string_pos@column^0,c
  3474   00037E  0E8F               	movlw	low STR_18
  3475   000380  6E49               	movwf	lcd_4bit_send_string_pos@str^0,c
  3476   000382  0EFF               	movlw	high STR_18
  3477   000384  6E4A               	movwf	(lcd_4bit_send_string_pos@str+1)^0,c
  3478   000386  ECBB  F007         	call	_lcd_4bit_send_string_pos	;wreg free
  3479                           
  3480                           ;main.c: 139:             lcd_4bit_send_string_pos(&LCD_1 ,2 ,1 ,"Pass:");
  3481   00038A  0E73               	movlw	low _LCD_1
  3482   00038C  6E46               	movwf	lcd_4bit_send_string_pos@_lcd^0,c
  3483   00038E  0E02               	movlw	2
  3484   000390  6E47               	movwf	lcd_4bit_send_string_pos@row^0,c
  3485   000392  0E01               	movlw	1
  3486   000394  6E48               	movwf	lcd_4bit_send_string_pos@column^0,c
  3487   000396  0E7D               	movlw	low (STR_9+6)
  3488   000398  6E49               	movwf	lcd_4bit_send_string_pos@str^0,c
  3489   00039A  0EFF               	movlw	high (STR_9+6)
  3490   00039C  6E4A               	movwf	(lcd_4bit_send_string_pos@str+1)^0,c
  3491   00039E  ECBB  F007         	call	_lcd_4bit_send_string_pos	;wreg free
  3492                           
  3493                           ;main.c: 140:             lcd_4bit_send_string_pos(&LCD_1 ,2 ,16 ,"H");
  3494   0003A2  0E73               	movlw	low _LCD_1
  3495   0003A4  6E46               	movwf	lcd_4bit_send_string_pos@_lcd^0,c
  3496   0003A6  0E02               	movlw	2
  3497   0003A8  6E47               	movwf	lcd_4bit_send_string_pos@row^0,c
  3498   0003AA  0E10               	movlw	16
  3499   0003AC  6E48               	movwf	lcd_4bit_send_string_pos@column^0,c
  3500   0003AE  0EFC               	movlw	low STR_22
  3501   0003B0  6E49               	movwf	lcd_4bit_send_string_pos@str^0,c
  3502   0003B2  0EFF               	movlw	high STR_22
  3503   0003B4  6E4A               	movwf	(lcd_4bit_send_string_pos@str+1)^0,c
  3504   0003B6  ECBB  F007         	call	_lcd_4bit_send_string_pos	;wreg free
  3505   0003BA                     
  3506                           ;main.c: 141:             value = 0xFF;
  3507   0003BA  6857               	setf	AdminLogin@value^0,c
  3508   0003BC                     
  3509                           ;main.c: 142:             delay_ms(250);
  3510   0003BC  0EFA               	movlw	250
  3511   0003BE  6E32               	movwf	delay_ms@val^0,c
  3512   0003C0  0E00               	movlw	0
  3513   0003C2  6E33               	movwf	(delay_ms@val+1)^0,c
  3514   0003C4  0E00               	movlw	0
  3515   0003C6  6E34               	movwf	(delay_ms@val+2)^0,c
  3516   0003C8  0E00               	movlw	0
  3517   0003CA  6E35               	movwf	(delay_ms@val+3)^0,c
  3518   0003CC  EC7C  F008         	call	_delay_ms	;wreg free
  3519   0003D0                     
  3520                           ;main.c: 143:             lcd_4bit_send_char_data_pos(&LCD_1, 2, 6+i,'_');
  3521   0003D0  0E73               	movlw	low _LCD_1
  3522   0003D2  6E46               	movwf	lcd_4bit_send_char_data_pos@_lcd^0,c
  3523   0003D4  0E02               	movlw	2
  3524   0003D6  6E47               	movwf	lcd_4bit_send_char_data_pos@row^0,c
  3525   0003D8  5056               	movf	AdminLogin@i_3460^0,w,c
  3526   0003DA  0F06               	addlw	6
  3527   0003DC  6E48               	movwf	lcd_4bit_send_char_data_pos@column^0,c
  3528   0003DE  0E5F               	movlw	95
  3529   0003E0  6E49               	movwf	lcd_4bit_send_char_data_pos@data^0,c
  3530   0003E2  EC0F  F00A         	call	_lcd_4bit_send_char_data_pos	;wreg free
  3531                           
  3532                           ;main.c: 144:             while(value == 0xFF){
  3533   0003E6  EFFB  F001         	goto	l5420
  3534   0003EA                     l5418:
  3535                           
  3536                           ;main.c: 145:                 keypad_get_value(&keypad_1, &value);
  3537   0003EA  0E8A               	movlw	low _keypad_1
  3538   0003EC  6E3A               	movwf	keypad_get_value@_keypad^0,c
  3539   0003EE  0E57               	movlw	low AdminLogin@value
  3540   0003F0  6E3B               	movwf	keypad_get_value@value^0,c
  3541   0003F2  EC3C  F005         	call	_keypad_get_value	;wreg free
  3542   0003F6                     l5420:
  3543                           
  3544                           ;main.c: 144:             while(value == 0xFF){
  3545   0003F6  2857               	incf	AdminLogin@value^0,w,c
  3546   0003F8  B4D8               	btfsc	status,2,c
  3547   0003FA  EF01  F002         	goto	u3391
  3548   0003FE  EF03  F002         	goto	u3390
  3549   000402                     u3391:
  3550   000402  EFF5  F001         	goto	l5418
  3551   000406                     u3390:
  3552   000406                     
  3553                           ;main.c: 148:             if(value == '#'){
  3554   000406  0E23               	movlw	35
  3555   000408  1857               	xorwf	AdminLogin@value^0,w,c
  3556   00040A  A4D8               	btfss	status,2,c
  3557   00040C  EF0A  F002         	goto	u3401
  3558   000410  EF0C  F002         	goto	u3400
  3559   000414                     u3401:
  3560   000414  EF0E  F002         	goto	l5428
  3561   000418                     u3400:
  3562   000418  EFF0  F002         	goto	l1539
  3563   00041C                     l5428:
  3564                           
  3565                           ;main.c: 151:             lcd_4bit_send_char_data_pos(&LCD_1, 2, 6+i, value);
  3566   00041C  0E73               	movlw	low _LCD_1
  3567   00041E  6E46               	movwf	lcd_4bit_send_char_data_pos@_lcd^0,c
  3568   000420  0E02               	movlw	2
  3569   000422  6E47               	movwf	lcd_4bit_send_char_data_pos@row^0,c
  3570   000424  5056               	movf	AdminLogin@i_3460^0,w,c
  3571   000426  0F06               	addlw	6
  3572   000428  6E48               	movwf	lcd_4bit_send_char_data_pos@column^0,c
  3573   00042A  C057  F049         	movff	AdminLogin@value,lcd_4bit_send_char_data_pos@data
  3574   00042E  EC0F  F00A         	call	_lcd_4bit_send_char_data_pos	;wreg free
  3575   000432                     
  3576                           ;main.c: 152:             delay_ms(250);
  3577   000432  0EFA               	movlw	250
  3578   000434  6E32               	movwf	delay_ms@val^0,c
  3579   000436  0E00               	movlw	0
  3580   000438  6E33               	movwf	(delay_ms@val+1)^0,c
  3581   00043A  0E00               	movlw	0
  3582   00043C  6E34               	movwf	(delay_ms@val+2)^0,c
  3583   00043E  0E00               	movlw	0
  3584   000440  6E35               	movwf	(delay_ms@val+3)^0,c
  3585   000442  EC7C  F008         	call	_delay_ms	;wreg free
  3586   000446                     
  3587                           ;main.c: 153:             lcd_4bit_send_char_data_pos(&LCD_1, 2, 6+i, '*');
  3588   000446  0E73               	movlw	low _LCD_1
  3589   000448  6E46               	movwf	lcd_4bit_send_char_data_pos@_lcd^0,c
  3590   00044A  0E02               	movlw	2
  3591   00044C  6E47               	movwf	lcd_4bit_send_char_data_pos@row^0,c
  3592   00044E  5056               	movf	AdminLogin@i_3460^0,w,c
  3593   000450  0F06               	addlw	6
  3594   000452  6E48               	movwf	lcd_4bit_send_char_data_pos@column^0,c
  3595   000454  0E2A               	movlw	42
  3596   000456  6E49               	movwf	lcd_4bit_send_char_data_pos@data^0,c
  3597   000458  EC0F  F00A         	call	_lcd_4bit_send_char_data_pos	;wreg free
  3598   00045C                     
  3599                           ;main.c: 154:             LoginPass[i] = value;
  3600   00045C  5056               	movf	AdminLogin@i_3460^0,w,c
  3601   00045E  0F4F               	addlw	low AdminLogin@LoginPass
  3602   000460  6ED9               	movwf	fsr2l,c
  3603   000462  6ADA               	clrf	fsr2h,c
  3604   000464  C057  FFDF         	movff	AdminLogin@value,indf2
  3605   000468                     
  3606                           ;main.c: 155:         }
  3607   000468  2A56               	incf	AdminLogin@i_3460^0,f,c
  3608   00046A  0E03               	movlw	3
  3609   00046C  6456               	cpfsgt	AdminLogin@i_3460^0,c
  3610   00046E  EF3B  F002         	goto	u3411
  3611   000472  EF3D  F002         	goto	u3410
  3612   000476                     u3411:
  3613   000476  EFB9  F001         	goto	l5410
  3614   00047A                     u3410:
  3615   00047A                     
  3616                           ;main.c: 157:         value = StringCompare(LoginPass, password, 4);
  3617   00047A  0E4F               	movlw	low AdminLogin@LoginPass
  3618   00047C  6E32               	movwf	StringCompare@str1^0,c
  3619   00047E  0E4B               	movlw	low AdminLogin@password
  3620   000480  6E33               	movwf	StringCompare@str2^0,c
  3621   000482  0E04               	movlw	4
  3622   000484  6E34               	movwf	StringCompare@Length^0,c
  3623   000486  ECC9  F009         	call	_StringCompare	;wreg free
  3624   00048A  6E57               	movwf	AdminLogin@value^0,c
  3625   00048C                     
  3626                           ;main.c: 159:         if(value){
  3627   00048C  5057               	movf	AdminLogin@value^0,w,c
  3628   00048E  B4D8               	btfsc	status,2,c
  3629   000490  EF4C  F002         	goto	u3421
  3630   000494  EF4E  F002         	goto	u3420
  3631   000498                     u3421:
  3632   000498  EF6C  F002         	goto	l5452
  3633   00049C                     u3420:
  3634   00049C                     
  3635                           ;main.c: 160:             lcd_4bit_send_command(&LCD_1, 0x01);
  3636   00049C  0E73               	movlw	low _LCD_1
  3637   00049E  6E3D               	movwf	lcd_4bit_send_command@_lcd^0,c
  3638   0004A0  0E01               	movlw	1
  3639   0004A2  6E3E               	movwf	lcd_4bit_send_command@command^0,c
  3640   0004A4  ECAB  F008         	call	_lcd_4bit_send_command	;wreg free
  3641   0004A8                     
  3642                           ;main.c: 161:             lcd_4bit_send_string_pos(&LCD_1 ,1 ,1 ,"Login Success");
  3643   0004A8  0E73               	movlw	low _LCD_1
  3644   0004AA  6E46               	movwf	lcd_4bit_send_string_pos@_lcd^0,c
  3645   0004AC  0E01               	movlw	1
  3646   0004AE  6E47               	movwf	lcd_4bit_send_string_pos@row^0,c
  3647   0004B0  0E01               	movlw	1
  3648   0004B2  6E48               	movwf	lcd_4bit_send_string_pos@column^0,c
  3649   0004B4  0E5C               	movlw	low STR_23
  3650   0004B6  6E49               	movwf	lcd_4bit_send_string_pos@str^0,c
  3651   0004B8  0EFF               	movlw	high STR_23
  3652   0004BA  6E4A               	movwf	(lcd_4bit_send_string_pos@str+1)^0,c
  3653   0004BC  ECBB  F007         	call	_lcd_4bit_send_string_pos	;wreg free
  3654   0004C0                     
  3655                           ;main.c: 162:             delay_ms(1000);
  3656   0004C0  0EE8               	movlw	232
  3657   0004C2  6E32               	movwf	delay_ms@val^0,c
  3658   0004C4  0E03               	movlw	3
  3659   0004C6  6E33               	movwf	(delay_ms@val+1)^0,c
  3660   0004C8  0E00               	movlw	0
  3661   0004CA  6E34               	movwf	(delay_ms@val+2)^0,c
  3662   0004CC  0E00               	movlw	0
  3663   0004CE  6E35               	movwf	(delay_ms@val+3)^0,c
  3664   0004D0  EC7C  F008         	call	_delay_ms	;wreg free
  3665                           
  3666                           ;main.c: 163:             break;
  3667   0004D4  EFEE  F002         	goto	l5484
  3668   0004D8                     l5452:
  3669                           
  3670                           ;main.c: 166:             lcd_4bit_send_command(&LCD_1, 0x01);
  3671   0004D8  0E73               	movlw	low _LCD_1
  3672   0004DA  6E3D               	movwf	lcd_4bit_send_command@_lcd^0,c
  3673   0004DC  0E01               	movlw	1
  3674   0004DE  6E3E               	movwf	lcd_4bit_send_command@command^0,c
  3675   0004E0  ECAB  F008         	call	_lcd_4bit_send_command	;wreg free
  3676   0004E4                     
  3677                           ;main.c: 167:             lcd_4bit_send_string_pos(&LCD_1 ,1 ,1 ,"Wrong Pass");
  3678   0004E4  0E73               	movlw	low _LCD_1
  3679   0004E6  6E46               	movwf	lcd_4bit_send_string_pos@_lcd^0,c
  3680   0004E8  0E01               	movlw	1
  3681   0004EA  6E47               	movwf	lcd_4bit_send_string_pos@row^0,c
  3682   0004EC  0E01               	movlw	1
  3683   0004EE  6E48               	movwf	lcd_4bit_send_string_pos@column^0,c
  3684   0004F0  0ECA               	movlw	low STR_24
  3685   0004F2  6E49               	movwf	lcd_4bit_send_string_pos@str^0,c
  3686   0004F4  0EFF               	movlw	high STR_24
  3687   0004F6  6E4A               	movwf	(lcd_4bit_send_string_pos@str+1)^0,c
  3688   0004F8  ECBB  F007         	call	_lcd_4bit_send_string_pos	;wreg free
  3689   0004FC                     
  3690                           ;main.c: 168:             lcd_4bit_send_string_pos(&LCD_1 ,2 ,1 ,"Try Again");
  3691   0004FC  0E73               	movlw	low _LCD_1
  3692   0004FE  6E46               	movwf	lcd_4bit_send_string_pos@_lcd^0,c
  3693   000500  0E02               	movlw	2
  3694   000502  6E47               	movwf	lcd_4bit_send_string_pos@row^0,c
  3695   000504  0E01               	movlw	1
  3696   000506  6E48               	movwf	lcd_4bit_send_string_pos@column^0,c
  3697   000508  0ED5               	movlw	low STR_25
  3698   00050A  6E49               	movwf	lcd_4bit_send_string_pos@str^0,c
  3699   00050C  0EFF               	movlw	high STR_25
  3700   00050E  6E4A               	movwf	(lcd_4bit_send_string_pos@str+1)^0,c
  3701   000510  ECBB  F007         	call	_lcd_4bit_send_string_pos	;wreg free
  3702                           
  3703                           ;main.c: 169:             lcd_4bit_send_char_data_pos(&LCD_1 ,2 ,11 ,tryAgain+0x2F);
  3704   000514  0E73               	movlw	low _LCD_1
  3705   000516  6E46               	movwf	lcd_4bit_send_char_data_pos@_lcd^0,c
  3706   000518  0E02               	movlw	2
  3707   00051A  6E47               	movwf	lcd_4bit_send_char_data_pos@row^0,c
  3708   00051C  0E0B               	movlw	11
  3709   00051E  6E48               	movwf	lcd_4bit_send_char_data_pos@column^0,c
  3710   000520  5054               	movf	AdminLogin@tryAgain^0,w,c
  3711   000522  0F2F               	addlw	47
  3712   000524  6E49               	movwf	lcd_4bit_send_char_data_pos@data^0,c
  3713   000526  EC0F  F00A         	call	_lcd_4bit_send_char_data_pos	;wreg free
  3714   00052A                     
  3715                           ;main.c: 170:             delay_ms(500);
  3716   00052A  0EF4               	movlw	244
  3717   00052C  6E32               	movwf	delay_ms@val^0,c
  3718   00052E  0E01               	movlw	1
  3719   000530  6E33               	movwf	(delay_ms@val+1)^0,c
  3720   000532  0E00               	movlw	0
  3721   000534  6E34               	movwf	(delay_ms@val+2)^0,c
  3722   000536  0E00               	movlw	0
  3723   000538  6E35               	movwf	(delay_ms@val+3)^0,c
  3724   00053A  EC7C  F008         	call	_delay_ms	;wreg free
  3725   00053E                     
  3726                           ;main.c: 171:             lcd_4bit_send_string_pos(&LCD_1 ,2 ,6 ,"      ");
  3727   00053E  0E73               	movlw	low _LCD_1
  3728   000540  6E46               	movwf	lcd_4bit_send_string_pos@_lcd^0,c
  3729   000542  0E02               	movlw	2
  3730   000544  6E47               	movwf	lcd_4bit_send_string_pos@row^0,c
  3731   000546  0E06               	movlw	6
  3732   000548  6E48               	movwf	lcd_4bit_send_string_pos@column^0,c
  3733   00054A  0EE8               	movlw	low STR_26
  3734   00054C  6E49               	movwf	lcd_4bit_send_string_pos@str^0,c
  3735   00054E  0EFF               	movlw	high STR_26
  3736   000550  6E4A               	movwf	(lcd_4bit_send_string_pos@str+1)^0,c
  3737   000552  ECBB  F007         	call	_lcd_4bit_send_string_pos	;wreg free
  3738   000556                     
  3739                           ;main.c: 172:             tryAgain--;
  3740   000556  0654               	decf	AdminLogin@tryAgain^0,f,c
  3741   000558                     
  3742                           ;main.c: 173:             if(tryAgain == 0){
  3743   000558  5054               	movf	AdminLogin@tryAgain^0,w,c
  3744   00055A  A4D8               	btfss	status,2,c
  3745   00055C  EFB2  F002         	goto	u3431
  3746   000560  EFB4  F002         	goto	u3430
  3747   000564                     u3431:
  3748   000564  EFE6  F002         	goto	l1543
  3749   000568                     u3430:
  3750   000568                     
  3751                           ;main.c: 174:                 tryAgain = 3;
  3752   000568  0E03               	movlw	3
  3753   00056A  6E54               	movwf	AdminLogin@tryAgain^0,c
  3754   00056C                     
  3755                           ;main.c: 175:                 ShutDownValue++;
  3756   00056C  2A53               	incf	AdminLogin@ShutDownValue^0,f,c
  3757   00056E                     
  3758                           ;main.c: 177:                 if(ShutDownValue == 3){
  3759   00056E  0E03               	movlw	3
  3760   000570  1853               	xorwf	AdminLogin@ShutDownValue^0,w,c
  3761   000572  A4D8               	btfss	status,2,c
  3762   000574  EFBE  F002         	goto	u3441
  3763   000578  EFC0  F002         	goto	u3440
  3764   00057C                     u3441:
  3765   00057C  EFC2  F002         	goto	l5474
  3766   000580                     u3440:
  3767   000580                     
  3768                           ;main.c: 178:                     SystemShutDown();
  3769   000580  EC47  F00A         	call	_SystemShutDown	;wreg free
  3770   000584                     l5474:
  3771                           
  3772                           ;main.c: 180:                 lcd_4bit_send_command(&LCD_1, 0x01);
  3773   000584  0E73               	movlw	low _LCD_1
  3774   000586  6E3D               	movwf	lcd_4bit_send_command@_lcd^0,c
  3775   000588  0E01               	movlw	1
  3776   00058A  6E3E               	movwf	lcd_4bit_send_command@command^0,c
  3777   00058C  ECAB  F008         	call	_lcd_4bit_send_command	;wreg free
  3778   000590                     
  3779                           ;main.c: 181:                 lcd_4bit_send_string_pos(&LCD_1 ,1 ,1 ,"Waiting 5 Sec");
  3780   000590  0E73               	movlw	low _LCD_1
  3781   000592  6E46               	movwf	lcd_4bit_send_string_pos@_lcd^0,c
  3782   000594  0E01               	movlw	1
  3783   000596  6E47               	movwf	lcd_4bit_send_string_pos@row^0,c
  3784   000598  0E01               	movlw	1
  3785   00059A  6E48               	movwf	lcd_4bit_send_string_pos@column^0,c
  3786   00059C  0E4E               	movlw	low STR_27
  3787   00059E  6E49               	movwf	lcd_4bit_send_string_pos@str^0,c
  3788   0005A0  0EFF               	movlw	high STR_27
  3789   0005A2  6E4A               	movwf	(lcd_4bit_send_string_pos@str+1)^0,c
  3790   0005A4  ECBB  F007         	call	_lcd_4bit_send_string_pos	;wreg free
  3791   0005A8                     
  3792                           ;main.c: 182:                 delay_ms(5000);
  3793   0005A8  0E88               	movlw	136
  3794   0005AA  6E32               	movwf	delay_ms@val^0,c
  3795   0005AC  0E13               	movlw	19
  3796   0005AE  6E33               	movwf	(delay_ms@val+1)^0,c
  3797   0005B0  0E00               	movlw	0
  3798   0005B2  6E34               	movwf	(delay_ms@val+2)^0,c
  3799   0005B4  0E00               	movlw	0
  3800   0005B6  6E35               	movwf	(delay_ms@val+3)^0,c
  3801   0005B8  EC7C  F008         	call	_delay_ms	;wreg free
  3802   0005BC                     
  3803                           ;main.c: 183:                 lcd_4bit_send_command(&LCD_1, 0x01);
  3804   0005BC  0E73               	movlw	low _LCD_1
  3805   0005BE  6E3D               	movwf	lcd_4bit_send_command@_lcd^0,c
  3806   0005C0  0E01               	movlw	1
  3807   0005C2  6E3E               	movwf	lcd_4bit_send_command@command^0,c
  3808   0005C4  ECAB  F008         	call	_lcd_4bit_send_command	;wreg free
  3809                           
  3810                           ;main.c: 184:             }else{}
  3811   0005C8  EFE6  F002         	goto	l5482
  3812   0005CC                     l1543:
  3813   0005CC                     l5482:
  3814                           
  3815                           ;main.c: 135:     while(tryAgain){
  3816   0005CC  5054               	movf	AdminLogin@tryAgain^0,w,c
  3817   0005CE  A4D8               	btfss	status,2,c
  3818   0005D0  EFEC  F002         	goto	u3451
  3819   0005D4  EFEE  F002         	goto	u3450
  3820   0005D8                     u3451:
  3821   0005D8  EFB7  F001         	goto	l5404
  3822   0005DC                     u3450:
  3823   0005DC                     l5484:
  3824                           
  3825                           ;main.c: 187:     AdminControl();
  3826   0005DC  ECA4  F009         	call	_AdminControl	;wreg free
  3827   0005E0                     l1539:
  3828   0005E0  0012               	return		;funcret
  3829   0005E2                     __end_of_AdminLogin:
  3830                           	callstack 0
  3831                           
  3832 ;; *************** function _lcd_4bit_send_char_data_pos *****************
  3833 ;; Defined at:
  3834 ;;		line 191 in file "ECU_Layer/LCD/ecu_lcd.c"
  3835 ;; Parameters:    Size  Location     Type
  3836 ;;  _lcd            1   20[COMRAM] PTR const struct .
  3837 ;;		 -> LCD_1(6), 
  3838 ;;  row             1   21[COMRAM] unsigned char 
  3839 ;;  column          1   22[COMRAM] unsigned char 
  3840 ;;  data            1   23[COMRAM] unsigned char 
  3841 ;; Auto vars:     Size  Location     Type
  3842 ;;  status          1   24[COMRAM] unsigned char 
  3843 ;; Return value:  Size  Location     Type
  3844 ;;                  1    wreg      unsigned char 
  3845 ;; Registers used:
  3846 ;;		wreg, fsr2l, fsr2h, status,2, status,0, prodl, prodh, cstack
  3847 ;; Tracked objects:
  3848 ;;		On entry : 0/0
  3849 ;;		On exit  : 0/0
  3850 ;;		Unchanged: 0/0
  3851 ;; Data sizes:     COMRAM   BANK0   BANK1   BANK2   BANK3   BANK4   BANK5   BANK6   BANK7   BANK8   BANK9  BANK10  BANK1
      +1  BANK12  BANK13  BANK14  BANK15
  3852 ;;      Params:         4       0       0       0       0       0       0       0       0       0       0       0       
      +0       0       0       0       0
  3853 ;;      Locals:         1       0       0       0       0       0       0       0       0       0       0       0       
      +0       0       0       0       0
  3854 ;;      Temps:          0       0       0       0       0       0       0       0       0       0       0       0       
      +0       0       0       0       0
  3855 ;;      Totals:         5       0       0       0       0       0       0       0       0       0       0       0       
      +0       0       0       0       0
  3856 ;;Total ram usage:        5 bytes
  3857 ;; Hardware stack levels used: 1
  3858 ;; Hardware stack levels required when called: 6
  3859 ;; This function calls:
  3860 ;;		_lcd_4bit_send_char_data
  3861 ;;		_lcd_4bit_set_pos
  3862 ;; This function is called by:
  3863 ;;		_AdminPassword
  3864 ;;		_GuestPassword
  3865 ;;		_AdminLogin
  3866 ;;		_GuestLogin
  3867 ;;		_lcd_4bit_send_custom_char
  3868 ;; This function uses a non-reentrant model
  3869 ;;
  3870                           
  3871                           	psect	text17
  3872   00141E                     __ptext17:
  3873                           	callstack 0
  3874   00141E                     _lcd_4bit_send_char_data_pos:
  3875                           	callstack 22
  3876   00141E                     
  3877                           ;ECU_Layer/LCD/ecu_lcd.c: 193:     if(((void*)0) == _lcd){
  3878   00141E  5046               	movf	lcd_4bit_send_char_data_pos@_lcd^0,w,c
  3879   001420  A4D8               	btfss	status,2,c
  3880   001422  EF15  F00A         	goto	u3211
  3881   001426  EF17  F00A         	goto	u3210
  3882   00142A                     u3211:
  3883   00142A  EF1B  F00A         	goto	l5150
  3884   00142E                     u3210:
  3885   00142E                     
  3886                           ;ECU_Layer/LCD/ecu_lcd.c: 194:         status = (Std_ReturnType)0X00;
  3887   00142E  0E00               	movlw	0
  3888   001430  6E4A               	movwf	lcd_4bit_send_char_data_pos@status^0,c
  3889                           
  3890                           ;ECU_Layer/LCD/ecu_lcd.c: 195:     }
  3891   001432  EF2B  F00A         	goto	l5152
  3892   001436                     l5150:
  3893                           
  3894                           ;ECU_Layer/LCD/ecu_lcd.c: 197:         status = lcd_4bit_set_pos(_lcd, row, column);
  3895   001436  C046  F040         	movff	lcd_4bit_send_char_data_pos@_lcd,lcd_4bit_set_pos@_lcd
  3896   00143A  C047  F041         	movff	lcd_4bit_send_char_data_pos@row,lcd_4bit_set_pos@row
  3897   00143E  C048  F042         	movff	lcd_4bit_send_char_data_pos@column,lcd_4bit_set_pos@column
  3898   001442  EC1D  F008         	call	_lcd_4bit_set_pos	;wreg free
  3899   001446  6E4A               	movwf	lcd_4bit_send_char_data_pos@status^0,c
  3900                           
  3901                           ;ECU_Layer/LCD/ecu_lcd.c: 198:         status = lcd_4bit_send_char_data(_lcd, data);
  3902   001448  C046  F03D         	movff	lcd_4bit_send_char_data_pos@_lcd,lcd_4bit_send_char_data@_lcd
  3903   00144C  C049  F03E         	movff	lcd_4bit_send_char_data_pos@data,lcd_4bit_send_char_data@data
  3904   001450  ECD7  F008         	call	_lcd_4bit_send_char_data	;wreg free
  3905   001454  6E4A               	movwf	lcd_4bit_send_char_data_pos@status^0,c
  3906   001456                     l5152:
  3907                           
  3908                           ;ECU_Layer/LCD/ecu_lcd.c: 200:     return status;
  3909   001456  504A               	movf	lcd_4bit_send_char_data_pos@status^0,w,c
  3910   001458  0012               	return		;funcret
  3911   00145A                     __end_of_lcd_4bit_send_char_data_pos:
  3912                           	callstack 0
  3913                           
  3914 ;; *************** function _keypad_get_value *****************
  3915 ;; Defined at:
  3916 ;;		line 45 in file "ECU_Layer/Keypad/keypad.c"
  3917 ;; Parameters:    Size  Location     Type
  3918 ;;  _keypad         1    8[COMRAM] PTR const struct .
  3919 ;;		 -> keypad_1(8), 
  3920 ;;  value           1    9[COMRAM] PTR unsigned char 
  3921 ;;		 -> GuestLogin@value(1), AdminLogin@value(1), SelectAdminOrGuest@value(1), GuestPassword@value(1), 
  3922 ;;		 -> AdminPassword@value(1), 
  3923 ;; Auto vars:     Size  Location     Type
  3924 ;;  l_columns_co    1   15[COMRAM] unsigned char 
  3925 ;;  l_rows_count    1   14[COMRAM] unsigned char 
  3926 ;;  l_counter       1   13[COMRAM] unsigned char 
  3927 ;;  c_logic         1   12[COMRAM] unsigned char 
  3928 ;;  status          1    0        unsigned char 
  3929 ;; Return value:  Size  Location     Type
  3930 ;;                  1    wreg      unsigned char 
  3931 ;; Registers used:
  3932 ;;		wreg, fsr1l, fsr1h, fsr2l, fsr2h, status,2, status,0, tblptrl, tblptrh, tblptru, prodl, prodh, cstack
  3933 ;; Tracked objects:
  3934 ;;		On entry : 0/0
  3935 ;;		On exit  : 0/0
  3936 ;;		Unchanged: 0/0
  3937 ;; Data sizes:     COMRAM   BANK0   BANK1   BANK2   BANK3   BANK4   BANK5   BANK6   BANK7   BANK8   BANK9  BANK10  BANK1
      +1  BANK12  BANK13  BANK14  BANK15
  3938 ;;      Params:         2       0       0       0       0       0       0       0       0       0       0       0       
      +0       0       0       0       0
  3939 ;;      Locals:         4       0       0       0       0       0       0       0       0       0       0       0       
      +0       0       0       0       0
  3940 ;;      Temps:          2       0       0       0       0       0       0       0       0       0       0       0       
      +0       0       0       0       0
  3941 ;;      Totals:         8       0       0       0       0       0       0       0       0       0       0       0       
      +0       0       0       0       0
  3942 ;;Total ram usage:        8 bytes
  3943 ;; Hardware stack levels used: 1
  3944 ;; Hardware stack levels required when called: 3
  3945 ;; This function calls:
  3946 ;;		_gpio_pin_read_logic
  3947 ;;		_gpio_pin_write_logic
  3948 ;; This function is called by:
  3949 ;;		_AdminPassword
  3950 ;;		_GuestPassword
  3951 ;;		_SelectAdminOrGuest
  3952 ;;		_AdminLogin
  3953 ;;		_GuestLogin
  3954 ;; This function uses a non-reentrant model
  3955 ;;
  3956                           
  3957                           	psect	text18
  3958   000A78                     __ptext18:
  3959                           	callstack 0
  3960   000A78                     _keypad_get_value:
  3961                           	callstack 25
  3962   000A78                     
  3963                           ;ECU_Layer/Keypad/keypad.c: 47:     uint8 c_logic = 0;
  3964   000A78  0E00               	movlw	0
  3965   000A7A  6E3E               	movwf	keypad_get_value@c_logic^0,c
  3966                           
  3967                           ;ECU_Layer/Keypad/keypad.c: 48:     uint8 l_rows_counter = 0, l_columns_counter = 0, l_c
      +                          ounter = 0;
  3968   000A7C  0E00               	movlw	0
  3969   000A7E  6E40               	movwf	keypad_get_value@l_rows_counter^0,c
  3970   000A80  0E00               	movlw	0
  3971   000A82  6E41               	movwf	keypad_get_value@l_columns_counter^0,c
  3972   000A84  0E00               	movlw	0
  3973   000A86  6E3F               	movwf	keypad_get_value@l_counter^0,c
  3974                           
  3975                           ;ECU_Layer/Keypad/keypad.c: 49:     if((((void*)0) == _keypad) || (((void*)0) == value))
      +                          {
  3976   000A88  503A               	movf	keypad_get_value@_keypad^0,w,c
  3977   000A8A  B4D8               	btfsc	status,2,c
  3978   000A8C  EF4A  F005         	goto	u3131
  3979   000A90  EF4C  F005         	goto	u3130
  3980   000A94                     u3131:
  3981   000A94  EF54  F005         	goto	l5062
  3982   000A98                     u3130:
  3983   000A98  503B               	movf	keypad_get_value@value^0,w,c
  3984   000A9A  A4D8               	btfss	status,2,c
  3985   000A9C  EF52  F005         	goto	u3141
  3986   000AA0  EF54  F005         	goto	u3140
  3987   000AA4                     u3141:
  3988   000AA4  EF56  F005         	goto	l5064
  3989   000AA8                     u3140:
  3990   000AA8                     l5062:
  3991                           
  3992                           ;ECU_Layer/Keypad/keypad.c: 51:     }
  3993   000AA8  EFAC  F005         	goto	l33
  3994   000AAC                     l5064:
  3995                           
  3996                           ;ECU_Layer/Keypad/keypad.c: 53:         for(l_rows_counter = 0; l_rows_counter<4; l_rows
      +                          _counter++){
  3997   000AAC  0E00               	movlw	0
  3998   000AAE  6E40               	movwf	keypad_get_value@l_rows_counter^0,c
  3999   000AB0                     l5070:
  4000                           
  4001                           ;ECU_Layer/Keypad/keypad.c: 54:             for(l_counter = 0; l_counter<4; l_counter++)
      +                          {
  4002   000AB0  0E00               	movlw	0
  4003   000AB2  6E3F               	movwf	keypad_get_value@l_counter^0,c
  4004   000AB4                     l5076:
  4005   000AB4  503A               	movf	keypad_get_value@_keypad^0,w,c
  4006   000AB6  243F               	addwf	keypad_get_value@l_counter^0,w,c
  4007   000AB8  6E32               	movwf	gpio_pin_write_logic@_pin_config^0,c
  4008   000ABA  0E00               	movlw	0
  4009   000ABC  6E33               	movwf	gpio_pin_write_logic@logic^0,c
  4010   000ABE  ECB4  F004         	call	_gpio_pin_write_logic	;wreg free
  4011   000AC2                     
  4012                           ;ECU_Layer/Keypad/keypad.c: 56:             }
  4013   000AC2  2A3F               	incf	keypad_get_value@l_counter^0,f,c
  4014   000AC4  0E03               	movlw	3
  4015   000AC6  643F               	cpfsgt	keypad_get_value@l_counter^0,c
  4016   000AC8  EF68  F005         	goto	u3151
  4017   000ACC  EF6A  F005         	goto	u3150
  4018   000AD0                     u3151:
  4019   000AD0  EF5A  F005         	goto	l5076
  4020   000AD4                     u3150:
  4021   000AD4  503A               	movf	keypad_get_value@_keypad^0,w,c
  4022   000AD6  2440               	addwf	keypad_get_value@l_rows_counter^0,w,c
  4023   000AD8  6E32               	movwf	gpio_pin_write_logic@_pin_config^0,c
  4024   000ADA  0E01               	movlw	1
  4025   000ADC  6E33               	movwf	gpio_pin_write_logic@logic^0,c
  4026   000ADE  ECB4  F004         	call	_gpio_pin_write_logic	;wreg free
  4027   000AE2                     
  4028                           ;ECU_Layer/Keypad/keypad.c: 58:                 for(l_columns_counter = 0; l_columns_cou
      +                          nter<4; l_columns_counter++){
  4029   000AE2  0E00               	movlw	0
  4030   000AE4  6E41               	movwf	keypad_get_value@l_columns_counter^0,c
  4031   000AE6                     l5090:
  4032   000AE6  503A               	movf	keypad_get_value@_keypad^0,w,c
  4033   000AE8  2441               	addwf	keypad_get_value@l_columns_counter^0,w,c
  4034   000AEA  0F04               	addlw	4
  4035   000AEC  6E32               	movwf	gpio_pin_read_logic@_pin_config^0,c
  4036   000AEE  0E3E               	movlw	low keypad_get_value@c_logic
  4037   000AF0  6E33               	movwf	gpio_pin_read_logic@logic^0,c
  4038   000AF2  EC7F  F006         	call	_gpio_pin_read_logic	;wreg free
  4039   000AF6                     
  4040                           ;ECU_Layer/Keypad/keypad.c: 60:                 if(c_logic == GPIO_HIGH){
  4041   000AF6  043E               	decf	keypad_get_value@c_logic^0,w,c
  4042   000AF8  A4D8               	btfss	status,2,c
  4043   000AFA  EF81  F005         	goto	u3161
  4044   000AFE  EF83  F005         	goto	u3160
  4045   000B02                     u3161:
  4046   000B02  EF9A  F005         	goto	l5096
  4047   000B06                     u3160:
  4048   000B06                     
  4049                           ;ECU_Layer/Keypad/keypad.c: 61:                     *value = btn_keypad[l_rows_counter][
      +                          l_columns_counter];
  4050   000B06  5040               	movf	keypad_get_value@l_rows_counter^0,w,c
  4051   000B08  0D04               	mullw	4
  4052   000B0A  0EDD               	movlw	low _btn_keypad
  4053   000B0C  24F3               	addwf	243,w,c
  4054   000B0E  6E3C               	movwf	??_keypad_get_value^0,c
  4055   000B10  0EFE               	movlw	high _btn_keypad
  4056   000B12  20F4               	addwfc	prodh,w,c
  4057   000B14  6E3D               	movwf	(??_keypad_get_value+1)^0,c
  4058   000B16  5041               	movf	keypad_get_value@l_columns_counter^0,w,c
  4059   000B18  263C               	addwf	??_keypad_get_value^0,f,c
  4060   000B1A  0E00               	movlw	0
  4061   000B1C  223D               	addwfc	(??_keypad_get_value+1)^0,f,c
  4062   000B1E  C03C  FFF6         	movff	??_keypad_get_value,tblptrl
  4063   000B22  C03D  FFF7         	movff	??_keypad_get_value+1,tblptrh
  4064   000B26                     	if	1	;Program memory is < 0x10000, tblptru is always zero
  4065   000B26  6AF8               	clrf	tblptru,c
  4066   000B28                     	endif
  4067   000B28                     	if	0	;tblptru may be non-zero
  4068   000B28                     	endif
  4069   000B28  503B               	movf	keypad_get_value@value^0,w,c
  4070   000B2A  6ED9               	movwf	fsr2l,c
  4071   000B2C  6ADA               	clrf	fsr2h,c
  4072   000B2E  0008               	tblrd		*
  4073   000B30  CFF5 FFDF          	movff	tablat,indf2
  4074   000B34                     l5096:
  4075                           
  4076                           ;ECU_Layer/Keypad/keypad.c: 63:             }
  4077   000B34  2A41               	incf	keypad_get_value@l_columns_counter^0,f,c
  4078   000B36  0E03               	movlw	3
  4079   000B38  6441               	cpfsgt	keypad_get_value@l_columns_counter^0,c
  4080   000B3A  EFA1  F005         	goto	u3171
  4081   000B3E  EFA3  F005         	goto	u3170
  4082   000B42                     u3171:
  4083   000B42  EF73  F005         	goto	l5090
  4084   000B46                     u3170:
  4085   000B46                     
  4086                           ;ECU_Layer/Keypad/keypad.c: 64:         }
  4087   000B46  2A40               	incf	keypad_get_value@l_rows_counter^0,f,c
  4088   000B48  0E03               	movlw	3
  4089   000B4A  6440               	cpfsgt	keypad_get_value@l_rows_counter^0,c
  4090   000B4C  EFAA  F005         	goto	u3181
  4091   000B50  EFAC  F005         	goto	u3180
  4092   000B54                     u3181:
  4093   000B54  EF58  F005         	goto	l5070
  4094   000B58                     u3180:
  4095   000B58                     l33:
  4096   000B58  0012               	return		;funcret
  4097   000B5A                     __end_of_keypad_get_value:
  4098                           	callstack 0
  4099                           
  4100 ;; *************** function _gpio_pin_read_logic *****************
  4101 ;; Defined at:
  4102 ;;		line 99 in file "MCAL_Layer/GPIO/hal_gpio.c"
  4103 ;; Parameters:    Size  Location     Type
  4104 ;;  _pin_config     1    0[COMRAM] PTR const struct .
  4105 ;;		 -> keypad_1$keypad_columns_pin(4), keypad_1(8), 
  4106 ;;  logic           1    1[COMRAM] PTR enum E2979
  4107 ;;		 -> keypad_get_value@c_logic(1), 
  4108 ;; Auto vars:     Size  Location     Type
  4109 ;;  status          1    6[COMRAM] unsigned char 
  4110 ;; Return value:  Size  Location     Type
  4111 ;;                  1    wreg      unsigned char 
  4112 ;; Registers used:
  4113 ;;		wreg, fsr1l, fsr1h, fsr2l, fsr2h, status,2, status,0, prodl, prodh
  4114 ;; Tracked objects:
  4115 ;;		On entry : 0/0
  4116 ;;		On exit  : 0/0
  4117 ;;		Unchanged: 0/0
  4118 ;; Data sizes:     COMRAM   BANK0   BANK1   BANK2   BANK3   BANK4   BANK5   BANK6   BANK7   BANK8   BANK9  BANK10  BANK1
      +1  BANK12  BANK13  BANK14  BANK15
  4119 ;;      Params:         2       0       0       0       0       0       0       0       0       0       0       0       
      +0       0       0       0       0
  4120 ;;      Locals:         1       0       0       0       0       0       0       0       0       0       0       0       
      +0       0       0       0       0
  4121 ;;      Temps:          4       0       0       0       0       0       0       0       0       0       0       0       
      +0       0       0       0       0
  4122 ;;      Totals:         7       0       0       0       0       0       0       0       0       0       0       0       
      +0       0       0       0       0
  4123 ;;Total ram usage:        7 bytes
  4124 ;; Hardware stack levels used: 1
  4125 ;; Hardware stack levels required when called: 2
  4126 ;; This function calls:
  4127 ;;		Nothing
  4128 ;; This function is called by:
  4129 ;;		_keypad_get_value
  4130 ;; This function uses a non-reentrant model
  4131 ;;
  4132                           
  4133                           	psect	text19
  4134   000CFE                     __ptext19:
  4135                           	callstack 0
  4136   000CFE                     _gpio_pin_read_logic:
  4137                           	callstack 25
  4138   000CFE                     
  4139                           ;MCAL_Layer/GPIO/hal_gpio.c: 100:     Std_ReturnType status = (Std_ReturnType)0X01;
  4140   000CFE  0E01               	movlw	1
  4141   000D00  6E38               	movwf	gpio_pin_read_logic@status^0,c
  4142                           
  4143                           ;MCAL_Layer/GPIO/hal_gpio.c: 101:     if((((void*)0) == _pin_config) || (((void*)0) == l
      +                          ogic) || _pin_config->pin > 8 -1){
  4144   000D02  5032               	movf	gpio_pin_read_logic@_pin_config^0,w,c
  4145   000D04  B4D8               	btfsc	status,2,c
  4146   000D06  EF87  F006         	goto	u3021
  4147   000D0A  EF89  F006         	goto	u3020
  4148   000D0E                     u3021:
  4149   000D0E  EFA1  F006         	goto	l4996
  4150   000D12                     u3020:
  4151   000D12  5033               	movf	gpio_pin_read_logic@logic^0,w,c
  4152   000D14  B4D8               	btfsc	status,2,c
  4153   000D16  EF8F  F006         	goto	u3031
  4154   000D1A  EF91  F006         	goto	u3030
  4155   000D1E                     u3031:
  4156   000D1E  EFA1  F006         	goto	l4996
  4157   000D22                     u3030:
  4158   000D22  5032               	movf	gpio_pin_read_logic@_pin_config^0,w,c
  4159   000D24  6ED9               	movwf	fsr2l,c
  4160   000D26  6ADA               	clrf	fsr2h,c
  4161   000D28  30DF               	rrcf	223,w,c
  4162   000D2A  32E8               	rrcf	wreg,f,c
  4163   000D2C  32E8               	rrcf	wreg,f,c
  4164   000D2E  0B07               	andlw	7
  4165   000D30  6E34               	movwf	??_gpio_pin_read_logic^0,c
  4166   000D32  0E07               	movlw	7
  4167   000D34  6434               	cpfsgt	??_gpio_pin_read_logic^0,c
  4168   000D36  EF9F  F006         	goto	u3041
  4169   000D3A  EFA1  F006         	goto	u3040
  4170   000D3E                     u3041:
  4171   000D3E  EFA5  F006         	goto	l4998
  4172   000D42                     u3040:
  4173   000D42                     l4996:
  4174                           
  4175                           ;MCAL_Layer/GPIO/hal_gpio.c: 102:         status = (Std_ReturnType)0X00;
  4176   000D42  0E00               	movlw	0
  4177   000D44  6E38               	movwf	gpio_pin_read_logic@status^0,c
  4178                           
  4179                           ;MCAL_Layer/GPIO/hal_gpio.c: 103:     }
  4180   000D46  EFCF  F006         	goto	l5000
  4181   000D4A                     l4998:
  4182                           
  4183                           ;MCAL_Layer/GPIO/hal_gpio.c: 105:         *logic = ((*port_register[_pin_config->port] >
      +                          > _pin_config->pin) & (uint8)1);
  4184   000D4A  5033               	movf	gpio_pin_read_logic@logic^0,w,c
  4185   000D4C  6ED9               	movwf	fsr2l,c
  4186   000D4E  6ADA               	clrf	fsr2h,c
  4187   000D50  5032               	movf	gpio_pin_read_logic@_pin_config^0,w,c
  4188   000D52  6EE1               	movwf	fsr1l,c
  4189   000D54  6AE2               	clrf	fsr1h,c
  4190   000D56  30E7               	rrcf	231,w,c
  4191   000D58  32E8               	rrcf	wreg,f,c
  4192   000D5A  32E8               	rrcf	wreg,f,c
  4193   000D5C  0B07               	andlw	7
  4194   000D5E  6E34               	movwf	??_gpio_pin_read_logic^0,c
  4195   000D60  5032               	movf	gpio_pin_read_logic@_pin_config^0,w,c
  4196   000D62  6EE1               	movwf	fsr1l,c
  4197   000D64  6AE2               	clrf	fsr1h,c
  4198   000D66  50E7               	movf	231,w,c
  4199   000D68  0B07               	andlw	7
  4200   000D6A  0D02               	mullw	2
  4201   000D6C  50F3               	movf	243,w,c
  4202   000D6E  0F80               	addlw	low _port_register
  4203   000D70  6EE1               	movwf	fsr1l,c
  4204   000D72  6AE2               	clrf	fsr1h,c
  4205   000D74  CFE6 F035          	movff	postinc1,??_gpio_pin_read_logic+1
  4206   000D78  CFE5 F036          	movff	postdec1,??_gpio_pin_read_logic+2
  4207   000D7C  C035  FFE1         	movff	??_gpio_pin_read_logic+1,fsr1l
  4208   000D80  C036  FFE2         	movff	??_gpio_pin_read_logic+2,fsr1h
  4209   000D84  50E7               	movf	indf1,w,c
  4210   000D86  6E37               	movwf	(??_gpio_pin_read_logic+3)^0,c
  4211   000D88  2A34               	incf	??_gpio_pin_read_logic^0,f,c
  4212   000D8A  EFC9  F006         	goto	u3054
  4213   000D8E                     u3055:
  4214   000D8E  90D8               	bcf	status,0,c
  4215   000D90  3237               	rrcf	(??_gpio_pin_read_logic+3)^0,f,c
  4216   000D92                     u3054:
  4217   000D92  2E34               	decfsz	??_gpio_pin_read_logic^0,f,c
  4218   000D94  EFC7  F006         	goto	u3055
  4219   000D98  5037               	movf	(??_gpio_pin_read_logic+3)^0,w,c
  4220   000D9A  0B01               	andlw	1
  4221   000D9C  6EDF               	movwf	indf2,c
  4222   000D9E                     l5000:
  4223                           
  4224                           ;MCAL_Layer/GPIO/hal_gpio.c: 107:     return status;
  4225   000D9E  5038               	movf	gpio_pin_read_logic@status^0,w,c
  4226   000DA0  0012               	return		;funcret
  4227   000DA2                     __end_of_gpio_pin_read_logic:
  4228                           	callstack 0
  4229                           
  4230 ;; *************** function _delay_ms *****************
  4231 ;; Defined at:
  4232 ;;		line 96 in file "ECU_Layer/ecu_layer_init.c"
  4233 ;; Parameters:    Size  Location     Type
  4234 ;;  val             4    0[COMRAM] unsigned long 
  4235 ;; Auto vars:     Size  Location     Type
  4236 ;;  j               2   10[COMRAM] unsigned int 
  4237 ;;  i               2    8[COMRAM] unsigned int 
  4238 ;; Return value:  Size  Location     Type
  4239 ;;                  1    wreg      void 
  4240 ;; Registers used:
  4241 ;;		wreg, status,2, status,0
  4242 ;; Tracked objects:
  4243 ;;		On entry : 0/0
  4244 ;;		On exit  : 0/0
  4245 ;;		Unchanged: 0/0
  4246 ;; Data sizes:     COMRAM   BANK0   BANK1   BANK2   BANK3   BANK4   BANK5   BANK6   BANK7   BANK8   BANK9  BANK10  BANK1
      +1  BANK12  BANK13  BANK14  BANK15
  4247 ;;      Params:         4       0       0       0       0       0       0       0       0       0       0       0       
      +0       0       0       0       0
  4248 ;;      Locals:         4       0       0       0       0       0       0       0       0       0       0       0       
      +0       0       0       0       0
  4249 ;;      Temps:          4       0       0       0       0       0       0       0       0       0       0       0       
      +0       0       0       0       0
  4250 ;;      Totals:        12       0       0       0       0       0       0       0       0       0       0       0       
      +0       0       0       0       0
  4251 ;;Total ram usage:       12 bytes
  4252 ;; Hardware stack levels used: 1
  4253 ;; Hardware stack levels required when called: 2
  4254 ;; This function calls:
  4255 ;;		Nothing
  4256 ;; This function is called by:
  4257 ;;		_Welcome
  4258 ;;		_SetPassword
  4259 ;;		_AdminPassword
  4260 ;;		_GuestPassword
  4261 ;;		_SelectAdminOrGuest
  4262 ;;		_AdminLogin
  4263 ;;		_GuestLogin
  4264 ;; This function uses a non-reentrant model
  4265 ;;
  4266                           
  4267                           	psect	text20
  4268   0010F8                     __ptext20:
  4269                           	callstack 0
  4270   0010F8                     _delay_ms:
  4271                           	callstack 27
  4272   0010F8                     
  4273                           ;ECU_Layer/ecu_layer_init.c: 97:  unsigned int i,j;;ECU_Layer/ecu_layer_init.c: 98:  for
      +                          (i=0;i<val;i++)
  4274   0010F8  0E00               	movlw	0
  4275   0010FA  6E3B               	movwf	(delay_ms@i+1)^0,c
  4276   0010FC  0E00               	movlw	0
  4277   0010FE  6E3A               	movwf	delay_ms@i^0,c
  4278   001100  EF95  F008         	goto	l5184
  4279   001104                     l5172:
  4280                           
  4281                           ;ECU_Layer/ecu_layer_init.c: 99:      for(j=0;j<135;j++);
  4282   001104  0E00               	movlw	0
  4283   001106  6E3D               	movwf	(delay_ms@j+1)^0,c
  4284   001108  0E00               	movlw	0
  4285   00110A  6E3C               	movwf	delay_ms@j^0,c
  4286   00110C                     l5178:
  4287   00110C  4A3C               	infsnz	delay_ms@j^0,f,c
  4288   00110E  2A3D               	incf	(delay_ms@j+1)^0,f,c
  4289   001110  503D               	movf	(delay_ms@j+1)^0,w,c
  4290   001112  E109               	bnz	u3240
  4291   001114  0E87               	movlw	135
  4292   001116  5C3C               	subwf	delay_ms@j^0,w,c
  4293   001118  A0D8               	btfss	status,0,c
  4294   00111A  EF91  F008         	goto	u3241
  4295   00111E  EF93  F008         	goto	u3240
  4296   001122                     u3241:
  4297   001122  EF86  F008         	goto	l5178
  4298   001126                     u3240:
  4299   001126  4A3A               	infsnz	delay_ms@i^0,f,c
  4300   001128  2A3B               	incf	(delay_ms@i+1)^0,f,c
  4301   00112A                     l5184:
  4302   00112A  503A               	movf	delay_ms@i^0,w,c
  4303   00112C  6E36               	movwf	??_delay_ms^0,c
  4304   00112E  503B               	movf	(delay_ms@i+1)^0,w,c
  4305   001130  6E37               	movwf	(??_delay_ms+1)^0,c
  4306   001132  6A38               	clrf	(??_delay_ms+2)^0,c
  4307   001134  6A39               	clrf	(??_delay_ms+3)^0,c
  4308   001136  5032               	movf	delay_ms@val^0,w,c
  4309   001138  5C36               	subwf	??_delay_ms^0,w,c
  4310   00113A  5033               	movf	(delay_ms@val+1)^0,w,c
  4311   00113C  5837               	subwfb	(??_delay_ms+1)^0,w,c
  4312   00113E  5034               	movf	(delay_ms@val+2)^0,w,c
  4313   001140  5838               	subwfb	(??_delay_ms+2)^0,w,c
  4314   001142  5035               	movf	(delay_ms@val+3)^0,w,c
  4315   001144  5839               	subwfb	(??_delay_ms+3)^0,w,c
  4316   001146  A0D8               	btfss	status,0,c
  4317   001148  EFA8  F008         	goto	u3251
  4318   00114C  EFAA  F008         	goto	u3250
  4319   001150                     u3251:
  4320   001150  EF82  F008         	goto	l5172
  4321   001154                     u3250:
  4322   001154  0012               	return		;funcret
  4323   001156                     __end_of_delay_ms:
  4324                           	callstack 0
  4325                           
  4326 ;; *************** function _SystemShutDown *****************
  4327 ;; Defined at:
  4328 ;;		line 300 in file "main.c"
  4329 ;; Parameters:    Size  Location     Type
  4330 ;;		None
  4331 ;; Auto vars:     Size  Location     Type
  4332 ;;		None
  4333 ;; Return value:  Size  Location     Type
  4334 ;;                  1    wreg      void 
  4335 ;; Registers used:
  4336 ;;		wreg, fsr2l, fsr2h, status,2, status,0, tblptrl, tblptrh, tblptru, prodl, prodh, cstack
  4337 ;; Tracked objects:
  4338 ;;		On entry : 0/0
  4339 ;;		On exit  : 0/0
  4340 ;;		Unchanged: 0/0
  4341 ;; Data sizes:     COMRAM   BANK0   BANK1   BANK2   BANK3   BANK4   BANK5   BANK6   BANK7   BANK8   BANK9  BANK10  BANK1
      +1  BANK12  BANK13  BANK14  BANK15
  4342 ;;      Params:         0       0       0       0       0       0       0       0       0       0       0       0       
      +0       0       0       0       0
  4343 ;;      Locals:         0       0       0       0       0       0       0       0       0       0       0       0       
      +0       0       0       0       0
  4344 ;;      Temps:          0       0       0       0       0       0       0       0       0       0       0       0       
      +0       0       0       0       0
  4345 ;;      Totals:         0       0       0       0       0       0       0       0       0       0       0       0       
      +0       0       0       0       0
  4346 ;;Total ram usage:        0 bytes
  4347 ;; Hardware stack levels used: 1
  4348 ;; Hardware stack levels required when called: 7
  4349 ;; This function calls:
  4350 ;;		_lcd_4bit_send_command
  4351 ;;		_lcd_4bit_send_string_pos
  4352 ;;		_led_turn_on
  4353 ;; This function is called by:
  4354 ;;		_AdminLogin
  4355 ;;		_GuestLogin
  4356 ;; This function uses a non-reentrant model
  4357 ;;
  4358                           
  4359                           	psect	text21
  4360   00148E                     __ptext21:
  4361                           	callstack 0
  4362   00148E                     _SystemShutDown:
  4363                           	callstack 21
  4364   00148E                     
  4365                           ;main.c: 302:         lcd_4bit_send_command(&LCD_1, 0x01);
  4366   00148E  0E73               	movlw	low _LCD_1
  4367   001490  6E3D               	movwf	lcd_4bit_send_command@_lcd^0,c
  4368   001492  0E01               	movlw	1
  4369   001494  6E3E               	movwf	lcd_4bit_send_command@command^0,c
  4370   001496  ECAB  F008         	call	_lcd_4bit_send_command	;wreg free
  4371   00149A                     
  4372                           ;main.c: 303:         lcd_4bit_send_string_pos(&LCD_1 ,1 ,1 ,"System ShutDown!");
  4373   00149A  0E73               	movlw	low _LCD_1
  4374   00149C  6E46               	movwf	lcd_4bit_send_string_pos@_lcd^0,c
  4375   00149E  0E01               	movlw	1
  4376   0014A0  6E47               	movwf	lcd_4bit_send_string_pos@row^0,c
  4377   0014A2  0E01               	movlw	1
  4378   0014A4  6E48               	movwf	lcd_4bit_send_string_pos@column^0,c
  4379   0014A6  0EED               	movlw	low STR_42
  4380   0014A8  6E49               	movwf	lcd_4bit_send_string_pos@str^0,c
  4381   0014AA  0EFE               	movlw	high STR_42
  4382   0014AC  6E4A               	movwf	(lcd_4bit_send_string_pos@str+1)^0,c
  4383   0014AE  ECBB  F007         	call	_lcd_4bit_send_string_pos	;wreg free
  4384   0014B2                     
  4385                           ;main.c: 304:         led_turn_on(&Alarm);
  4386   0014B2  0E79               	movlw	low _Alarm
  4387   0014B4  6E3A               	movwf	led_turn_on@led^0,c
  4388   0014B6  EC53  F007         	call	_led_turn_on	;wreg free
  4389   0014BA                     l1598:
  4390   0014BA  EF5D  F00A         	goto	l1598
  4391   0014BE  0012               	return		;funcret
  4392   0014C0                     __end_of_SystemShutDown:
  4393                           	callstack 0
  4394                           
  4395 ;; *************** function _StringCompare *****************
  4396 ;; Defined at:
  4397 ;;		line 260 in file "main.c"
  4398 ;; Parameters:    Size  Location     Type
  4399 ;;  str1            1    0[COMRAM] PTR unsigned char 
  4400 ;;		 -> GuestLogin@LoginPass(4), AdminLogin@LoginPass(4), 
  4401 ;;  str2            1    1[COMRAM] PTR unsigned char 
  4402 ;;		 -> GuestLogin@password(4), AdminLogin@password(4), 
  4403 ;;  Length          1    2[COMRAM] unsigned char 
  4404 ;; Auto vars:     Size  Location     Type
  4405 ;;  i               1    5[COMRAM] unsigned char 
  4406 ;; Return value:  Size  Location     Type
  4407 ;;                  1    wreg      unsigned char 
  4408 ;; Registers used:
  4409 ;;		wreg, fsr1l, fsr1h, fsr2l, fsr2h, status,2, status,0
  4410 ;; Tracked objects:
  4411 ;;		On entry : 0/0
  4412 ;;		On exit  : 0/0
  4413 ;;		Unchanged: 0/0
  4414 ;; Data sizes:     COMRAM   BANK0   BANK1   BANK2   BANK3   BANK4   BANK5   BANK6   BANK7   BANK8   BANK9  BANK10  BANK1
      +1  BANK12  BANK13  BANK14  BANK15
  4415 ;;      Params:         3       0       0       0       0       0       0       0       0       0       0       0       
      +0       0       0       0       0
  4416 ;;      Locals:         1       0       0       0       0       0       0       0       0       0       0       0       
      +0       0       0       0       0
  4417 ;;      Temps:          2       0       0       0       0       0       0       0       0       0       0       0       
      +0       0       0       0       0
  4418 ;;      Totals:         6       0       0       0       0       0       0       0       0       0       0       0       
      +0       0       0       0       0
  4419 ;;Total ram usage:        6 bytes
  4420 ;; Hardware stack levels used: 1
  4421 ;; Hardware stack levels required when called: 2
  4422 ;; This function calls:
  4423 ;;		Nothing
  4424 ;; This function is called by:
  4425 ;;		_AdminLogin
  4426 ;;		_GuestLogin
  4427 ;; This function uses a non-reentrant model
  4428 ;;
  4429                           
  4430                           	psect	text22
  4431   001392                     __ptext22:
  4432                           	callstack 0
  4433   001392                     _StringCompare:
  4434                           	callstack 26
  4435   001392                     
  4436                           ;main.c: 261:     for(uint8 i=0; i<Length; i++){
  4437   001392  0E00               	movlw	0
  4438   001394  6E37               	movwf	StringCompare@i^0,c
  4439   001396  EFE2  F009         	goto	l5246
  4440   00139A                     l5236:
  4441                           
  4442                           ;main.c: 262:         if(str1[i] != str2[i]){
  4443   00139A  5033               	movf	StringCompare@str2^0,w,c
  4444   00139C  2437               	addwf	StringCompare@i^0,w,c
  4445   00139E  6ED9               	movwf	fsr2l,c
  4446   0013A0  6ADA               	clrf	fsr2h,c
  4447   0013A2  5032               	movf	StringCompare@str1^0,w,c
  4448   0013A4  2437               	addwf	StringCompare@i^0,w,c
  4449   0013A6  6EE1               	movwf	fsr1l,c
  4450   0013A8  6AE2               	clrf	fsr1h,c
  4451   0013AA  50DE               	movf	postinc2,w,c
  4452   0013AC  18E6               	xorwf	postinc1,w,c
  4453   0013AE  B4D8               	btfsc	status,2,c
  4454   0013B0  EFDC  F009         	goto	u3291
  4455   0013B4  EFDE  F009         	goto	u3290
  4456   0013B8                     u3291:
  4457   0013B8  EFE1  F009         	goto	l5244
  4458   0013BC                     u3290:
  4459   0013BC                     
  4460                           ;main.c: 263:             return 0;
  4461   0013BC  0E00               	movlw	0
  4462   0013BE  EFEC  F009         	goto	l1574
  4463   0013C2                     l5244:
  4464                           
  4465                           ;main.c: 268:     }
  4466   0013C2  2A37               	incf	StringCompare@i^0,f,c
  4467   0013C4                     l5246:
  4468   0013C4  5034               	movf	StringCompare@Length^0,w,c
  4469   0013C6  5C37               	subwf	StringCompare@i^0,w,c
  4470   0013C8  A0D8               	btfss	status,0,c
  4471   0013CA  EFE9  F009         	goto	u3301
  4472   0013CE  EFEB  F009         	goto	u3300
  4473   0013D2                     u3301:
  4474   0013D2  EFCD  F009         	goto	l5236
  4475   0013D6                     u3300:
  4476   0013D6                     
  4477                           ;main.c: 269:     return 1;
  4478   0013D6  0E01               	movlw	1
  4479   0013D8                     l1574:
  4480   0013D8  0012               	return		;funcret
  4481   0013DA                     __end_of_StringCompare:
  4482                           	callstack 0
  4483                           
  4484 ;; *************** function _EEPROM_Data_Read *****************
  4485 ;; Defined at:
  4486 ;;		line 34 in file "MCAL_Layer/EEPROM/hal_eeprom.c"
  4487 ;; Parameters:    Size  Location     Type
  4488 ;;  Add             2    0[COMRAM] unsigned short 
  4489 ;;  Data            1    2[COMRAM] PTR unsigned char 
  4490 ;;		 -> GuestLogin@password(4), AdminLogin@password(4), SetPassword@value(1), 
  4491 ;; Auto vars:     Size  Location     Type
  4492 ;;  status          1    0        unsigned char 
  4493 ;; Return value:  Size  Location     Type
  4494 ;;                  1    wreg      unsigned char 
  4495 ;; Registers used:
  4496 ;;		wreg, fsr2l, fsr2h, status,2, status,0
  4497 ;; Tracked objects:
  4498 ;;		On entry : 0/0
  4499 ;;		On exit  : 0/0
  4500 ;;		Unchanged: 0/0
  4501 ;; Data sizes:     COMRAM   BANK0   BANK1   BANK2   BANK3   BANK4   BANK5   BANK6   BANK7   BANK8   BANK9  BANK10  BANK1
      +1  BANK12  BANK13  BANK14  BANK15
  4502 ;;      Params:         3       0       0       0       0       0       0       0       0       0       0       0       
      +0       0       0       0       0
  4503 ;;      Locals:         0       0       0       0       0       0       0       0       0       0       0       0       
      +0       0       0       0       0
  4504 ;;      Temps:          0       0       0       0       0       0       0       0       0       0       0       0       
      +0       0       0       0       0
  4505 ;;      Totals:         3       0       0       0       0       0       0       0       0       0       0       0       
      +0       0       0       0       0
  4506 ;;Total ram usage:        3 bytes
  4507 ;; Hardware stack levels used: 1
  4508 ;; Hardware stack levels required when called: 2
  4509 ;; This function calls:
  4510 ;;		Nothing
  4511 ;; This function is called by:
  4512 ;;		_SetPassword
  4513 ;;		_AdminLogin
  4514 ;;		_GuestLogin
  4515 ;; This function uses a non-reentrant model
  4516 ;;
  4517                           
  4518                           	psect	text23
  4519   00145A                     __ptext23:
  4520                           	callstack 0
  4521   00145A                     _EEPROM_Data_Read:
  4522                           	callstack 27
  4523   00145A                     
  4524                           ;MCAL_Layer/EEPROM/hal_eeprom.c: 36:     if(((void*)0) == Data){
  4525   00145A  5034               	movf	EEPROM_Data_Read@Data^0,w,c
  4526   00145C  A4D8               	btfss	status,2,c
  4527   00145E  EF33  F00A         	goto	u3281
  4528   001462  EF35  F00A         	goto	u3280
  4529   001466                     u3281:
  4530   001466  EF37  F00A         	goto	l5214
  4531   00146A                     u3280:
  4532   00146A                     
  4533                           ;MCAL_Layer/EEPROM/hal_eeprom.c: 38:     }
  4534   00146A  EF46  F00A         	goto	l518
  4535   00146E                     l5214:
  4536                           
  4537                           ;MCAL_Layer/EEPROM/hal_eeprom.c: 40:         EEADRH = ((Add >> 8) & 0x03);
  4538   00146E  5033               	movf	(EEPROM_Data_Read@Add+1)^0,w,c
  4539   001470  0B03               	andlw	3
  4540   001472  6EAA               	movwf	170,c	;volatile
  4541   001474                     
  4542                           ;MCAL_Layer/EEPROM/hal_eeprom.c: 41:         EEADR = (Add & 0xFF);
  4543   001474  C032  FFA9         	movff	EEPROM_Data_Read@Add,4009	;volatile
  4544   001478                     
  4545                           ;MCAL_Layer/EEPROM/hal_eeprom.c: 42:         EECON1bits.EEPGD = 0;
  4546   001478  9EA6               	bcf	166,7,c	;volsfr
  4547   00147A                     
  4548                           ;MCAL_Layer/EEPROM/hal_eeprom.c: 43:         EECON1bits.CFGS = 0;
  4549   00147A  9CA6               	bcf	166,6,c	;volsfr
  4550   00147C                     
  4551                           ;MCAL_Layer/EEPROM/hal_eeprom.c: 44:         EECON1bits.RD = 1;
  4552   00147C  80A6               	bsf	166,0,c	;volsfr
  4553   00147E                     
  4554                           ;MCAL_Layer/EEPROM/hal_eeprom.c: 45:         __nop();
  4555   00147E  0000               	nop	
  4556   001480                     
  4557                           ;MCAL_Layer/EEPROM/hal_eeprom.c: 46:         __nop();
  4558   001480  0000               	nop	
  4559   001482                     
  4560                           ;MCAL_Layer/EEPROM/hal_eeprom.c: 47:         *Data = EEDATA;
  4561   001482  5034               	movf	EEPROM_Data_Read@Data^0,w,c
  4562   001484  6ED9               	movwf	fsr2l,c
  4563   001486  6ADA               	clrf	fsr2h,c
  4564   001488  CFA8 FFDF          	movff	4008,indf2	;volatile
  4565   00148C                     l518:
  4566   00148C  0012               	return		;funcret
  4567   00148E                     __end_of_EEPROM_Data_Read:
  4568                           	callstack 0
  4569                           
  4570 ;; *************** function _AdminControl *****************
  4571 ;; Defined at:
  4572 ;;		line 274 in file "main.c"
  4573 ;; Parameters:    Size  Location     Type
  4574 ;;		None
  4575 ;; Auto vars:     Size  Location     Type
  4576 ;;		None
  4577 ;; Return value:  Size  Location     Type
  4578 ;;                  1    wreg      void 
  4579 ;; Registers used:
  4580 ;;		wreg, fsr2l, fsr2h, status,2, status,0, tblptrl, tblptrh, tblptru, prodl, prodh, cstack
  4581 ;; Tracked objects:
  4582 ;;		On entry : 0/0
  4583 ;;		On exit  : 0/0
  4584 ;;		Unchanged: 0/0
  4585 ;; Data sizes:     COMRAM   BANK0   BANK1   BANK2   BANK3   BANK4   BANK5   BANK6   BANK7   BANK8   BANK9  BANK10  BANK1
      +1  BANK12  BANK13  BANK14  BANK15
  4586 ;;      Params:         0       0       0       0       0       0       0       0       0       0       0       0       
      +0       0       0       0       0
  4587 ;;      Locals:         0       0       0       0       0       0       0       0       0       0       0       0       
      +0       0       0       0       0
  4588 ;;      Temps:          0       0       0       0       0       0       0       0       0       0       0       0       
      +0       0       0       0       0
  4589 ;;      Totals:         0       0       0       0       0       0       0       0       0       0       0       0       
      +0       0       0       0       0
  4590 ;;Total ram usage:        0 bytes
  4591 ;; Hardware stack levels used: 1
  4592 ;; Hardware stack levels required when called: 7
  4593 ;; This function calls:
  4594 ;;		_lcd_4bit_send_command
  4595 ;;		_lcd_4bit_send_string_pos
  4596 ;;		_led_turn_on
  4597 ;; This function is called by:
  4598 ;;		_AdminLogin
  4599 ;; This function uses a non-reentrant model
  4600 ;;
  4601                           
  4602                           	psect	text24
  4603   001348                     __ptext24:
  4604                           	callstack 0
  4605   001348                     _AdminControl:
  4606                           	callstack 21
  4607   001348                     
  4608                           ;main.c: 276:         lcd_4bit_send_command(&LCD_1, 0x01);
  4609   001348  0E73               	movlw	low _LCD_1
  4610   00134A  6E3D               	movwf	lcd_4bit_send_command@_lcd^0,c
  4611   00134C  0E01               	movlw	1
  4612   00134E  6E3E               	movwf	lcd_4bit_send_command@command^0,c
  4613   001350  ECAB  F008         	call	_lcd_4bit_send_command	;wreg free
  4614   001354                     
  4615                           ;main.c: 277:         lcd_4bit_send_string_pos(&LCD_1 ,1 ,1 ,"Admin Start");
  4616   001354  0E73               	movlw	low _LCD_1
  4617   001356  6E46               	movwf	lcd_4bit_send_string_pos@_lcd^0,c
  4618   001358  0E01               	movlw	1
  4619   00135A  6E47               	movwf	lcd_4bit_send_string_pos@row^0,c
  4620   00135C  0E01               	movlw	1
  4621   00135E  6E48               	movwf	lcd_4bit_send_string_pos@column^0,c
  4622   001360  0EA7               	movlw	low STR_38
  4623   001362  6E49               	movwf	lcd_4bit_send_string_pos@str^0,c
  4624   001364  0EFF               	movlw	high STR_38
  4625   001366  6E4A               	movwf	(lcd_4bit_send_string_pos@str+1)^0,c
  4626   001368  ECBB  F007         	call	_lcd_4bit_send_string_pos	;wreg free
  4627   00136C                     
  4628                           ;main.c: 278:         lcd_4bit_send_string_pos(&LCD_1 ,2 ,1 ,"Control Here");
  4629   00136C  0E73               	movlw	low _LCD_1
  4630   00136E  6E46               	movwf	lcd_4bit_send_string_pos@_lcd^0,c
  4631   001370  0E02               	movlw	2
  4632   001372  6E47               	movwf	lcd_4bit_send_string_pos@row^0,c
  4633   001374  0E01               	movlw	1
  4634   001376  6E48               	movwf	lcd_4bit_send_string_pos@column^0,c
  4635   001378  0E6A               	movlw	low STR_39
  4636   00137A  6E49               	movwf	lcd_4bit_send_string_pos@str^0,c
  4637   00137C  0EFF               	movlw	high STR_39
  4638   00137E  6E4A               	movwf	(lcd_4bit_send_string_pos@str+1)^0,c
  4639   001380  ECBB  F007         	call	_lcd_4bit_send_string_pos	;wreg free
  4640                           
  4641                           ;main.c: 279:         led_turn_on(&AdminLed);
  4642   001384  0E7B               	movlw	low _AdminLed
  4643   001386  6E3A               	movwf	led_turn_on@led^0,c
  4644   001388  EC53  F007         	call	_led_turn_on	;wreg free
  4645   00138C                     l1580:
  4646   00138C  EFC6  F009         	goto	l1580
  4647   001390  0012               	return		;funcret
  4648   001392                     __end_of_AdminControl:
  4649                           	callstack 0
  4650                           
  4651 ;; *************** function _led_turn_on *****************
  4652 ;; Defined at:
  4653 ;;		line 26 in file "ECU_Layer/LED/ecu_led.c"
  4654 ;; Parameters:    Size  Location     Type
  4655 ;;  led             1    8[COMRAM] PTR const struct .
  4656 ;;		 -> Alarm(1), GuestLed(1), AdminLed(1), 
  4657 ;; Auto vars:     Size  Location     Type
  4658 ;;  pin_obj         1   10[COMRAM] struct .
  4659 ;;  status          1    0        unsigned char 
  4660 ;; Return value:  Size  Location     Type
  4661 ;;                  1    wreg      unsigned char 
  4662 ;; Registers used:
  4663 ;;		wreg, fsr2l, fsr2h, status,2, status,0, prodl, prodh, cstack
  4664 ;; Tracked objects:
  4665 ;;		On entry : 0/0
  4666 ;;		On exit  : 0/0
  4667 ;;		Unchanged: 0/0
  4668 ;; Data sizes:     COMRAM   BANK0   BANK1   BANK2   BANK3   BANK4   BANK5   BANK6   BANK7   BANK8   BANK9  BANK10  BANK1
      +1  BANK12  BANK13  BANK14  BANK15
  4669 ;;      Params:         1       0       0       0       0       0       0       0       0       0       0       0       
      +0       0       0       0       0
  4670 ;;      Locals:         1       0       0       0       0       0       0       0       0       0       0       0       
      +0       0       0       0       0
  4671 ;;      Temps:          1       0       0       0       0       0       0       0       0       0       0       0       
      +0       0       0       0       0
  4672 ;;      Totals:         3       0       0       0       0       0       0       0       0       0       0       0       
      +0       0       0       0       0
  4673 ;;Total ram usage:        3 bytes
  4674 ;; Hardware stack levels used: 1
  4675 ;; Hardware stack levels required when called: 3
  4676 ;; This function calls:
  4677 ;;		_gpio_pin_write_logic
  4678 ;; This function is called by:
  4679 ;;		_AdminControl
  4680 ;;		_GuestControl
  4681 ;;		_SystemShutDown
  4682 ;; This function uses a non-reentrant model
  4683 ;;
  4684                           
  4685                           	psect	text25
  4686   000EA6                     __ptext25:
  4687                           	callstack 0
  4688   000EA6                     _led_turn_on:
  4689                           	callstack 24
  4690   000EA6                     
  4691                           ;ECU_Layer/LED/ecu_led.c: 28:     if(((void*)0) == led){
  4692   000EA6  503A               	movf	led_turn_on@led^0,w,c
  4693   000EA8  A4D8               	btfss	status,2,c
  4694   000EAA  EF59  F007         	goto	u3081
  4695   000EAE  EF5B  F007         	goto	u3080
  4696   000EB2                     u3081:
  4697   000EB2  EF5D  F007         	goto	l199
  4698   000EB6                     u3080:
  4699   000EB6                     
  4700                           ;ECU_Layer/LED/ecu_led.c: 30:     }
  4701   000EB6  EF87  F007         	goto	l203
  4702   000EBA                     l199:
  4703                           
  4704                           ;ECU_Layer/LED/ecu_led.c: 32:         pin_config_t pin_obj={.direction = GPIO_OUTPUT,
  4705   000EBA  C030  F03C         	movff	led_turn_on@F3064,led_turn_on@pin_obj
  4706   000EBE  503A               	movf	led_turn_on@led^0,w,c
  4707   000EC0  6ED9               	movwf	fsr2l,c
  4708   000EC2  6ADA               	clrf	fsr2h,c
  4709   000EC4  50DF               	movf	223,w,c
  4710   000EC6  0B0F               	andlw	15
  4711   000EC8  6E3B               	movwf	??_led_turn_on^0,c
  4712   000ECA  503C               	movf	led_turn_on@pin_obj^0,w,c
  4713   000ECC  183B               	xorwf	??_led_turn_on^0,w,c
  4714   000ECE  0BF8               	andlw	-8
  4715   000ED0  183B               	xorwf	??_led_turn_on^0,w,c
  4716   000ED2  6E3C               	movwf	led_turn_on@pin_obj^0,c
  4717   000ED4  503A               	movf	led_turn_on@led^0,w,c
  4718   000ED6  6ED9               	movwf	fsr2l,c
  4719   000ED8  6ADA               	clrf	fsr2h,c
  4720   000EDA  38DF               	swapf	223,w,c
  4721   000EDC  0B07               	andlw	7
  4722   000EDE  6E3B               	movwf	??_led_turn_on^0,c
  4723   000EE0  463B               	rlncf	??_led_turn_on^0,f,c
  4724   000EE2  463B               	rlncf	??_led_turn_on^0,f,c
  4725   000EE4  463B               	rlncf	??_led_turn_on^0,f,c
  4726   000EE6  503C               	movf	led_turn_on@pin_obj^0,w,c
  4727   000EE8  183B               	xorwf	??_led_turn_on^0,w,c
  4728   000EEA  0BC7               	andlw	-57
  4729   000EEC  183B               	xorwf	??_led_turn_on^0,w,c
  4730   000EEE  6E3C               	movwf	led_turn_on@pin_obj^0,c
  4731   000EF0  9C3C               	bcf	led_turn_on@pin_obj^0,6,c
  4732   000EF2  503A               	movf	led_turn_on@led^0,w,c
  4733   000EF4  6ED9               	movwf	fsr2l,c
  4734   000EF6  6ADA               	clrf	fsr2h,c
  4735   000EF8  AEDF               	btfss	indf2,7,c
  4736   000EFA  D002               	bra	u3095
  4737   000EFC  8E3C               	bsf	led_turn_on@pin_obj^0,7,c
  4738   000EFE  D001               	bra	u3097
  4739   000F00                     u3095:
  4740   000F00  9E3C               	bcf	led_turn_on@pin_obj^0,7,c
  4741   000F02                     u3097:
  4742   000F02  0E3C               	movlw	low led_turn_on@pin_obj
  4743   000F04  6E32               	movwf	gpio_pin_write_logic@_pin_config^0,c
  4744   000F06  0E01               	movlw	1
  4745   000F08  6E33               	movwf	gpio_pin_write_logic@logic^0,c
  4746   000F0A  ECB4  F004         	call	_gpio_pin_write_logic	;wreg free
  4747   000F0E                     l203:
  4748   000F0E  0012               	return		;funcret
  4749   000F10                     __end_of_led_turn_on:
  4750                           	callstack 0
  4751                           
  4752 ;; *************** function _lcd_4bit_send_string_pos *****************
  4753 ;; Defined at:
  4754 ;;		line 216 in file "ECU_Layer/LCD/ecu_lcd.c"
  4755 ;; Parameters:    Size  Location     Type
  4756 ;;  _lcd            1   20[COMRAM] PTR const struct .
  4757 ;;		 -> LCD_1(6), 
  4758 ;;  row             1   21[COMRAM] unsigned char 
  4759 ;;  column          1   22[COMRAM] unsigned char 
  4760 ;;  str             2   23[COMRAM] PTR unsigned char 
  4761 ;;		 -> STR_42(17), STR_41(13), STR_40(12), STR_39(13), 
  4762 ;;		 -> STR_38(12), STR_37(14), STR_36(7), STR_35(10), 
  4763 ;;		 -> STR_34(11), STR_33(14), STR_32(2), STR_31(6), 
  4764 ;;		 -> STR_30(12), STR_29(6), STR_28(12), STR_27(14), 
  4765 ;;		 -> STR_26(7), STR_25(10), STR_24(11), STR_23(14), 
  4766 ;;		 -> STR_22(2), STR_21(6), STR_20(12), STR_19(6), 
  4767 ;;		 -> STR_18(12), STR_17(17), STR_16(9), STR_15(11), 
  4768 ;;		 -> STR_14(11), STR_13(12), STR_12(15), STR_11(11), 
  4769 ;;		 -> STR_10(11), STR_9(12), STR_8(15), STR_7(5), 
  4770 ;;		 -> STR_6(16), STR_5(5), STR_4(17), 
  4771 ;; Auto vars:     Size  Location     Type
  4772 ;;  status          1    0        unsigned char 
  4773 ;; Return value:  Size  Location     Type
  4774 ;;                  1    wreg      unsigned char 
  4775 ;; Registers used:
  4776 ;;		wreg, fsr2l, fsr2h, status,2, status,0, tblptrl, tblptrh, tblptru, prodl, prodh, cstack
  4777 ;; Tracked objects:
  4778 ;;		On entry : 0/0
  4779 ;;		On exit  : 0/0
  4780 ;;		Unchanged: 0/0
  4781 ;; Data sizes:     COMRAM   BANK0   BANK1   BANK2   BANK3   BANK4   BANK5   BANK6   BANK7   BANK8   BANK9  BANK10  BANK1
      +1  BANK12  BANK13  BANK14  BANK15
  4782 ;;      Params:         5       0       0       0       0       0       0       0       0       0       0       0       
      +0       0       0       0       0
  4783 ;;      Locals:         0       0       0       0       0       0       0       0       0       0       0       0       
      +0       0       0       0       0
  4784 ;;      Temps:          0       0       0       0       0       0       0       0       0       0       0       0       
      +0       0       0       0       0
  4785 ;;      Totals:         5       0       0       0       0       0       0       0       0       0       0       0       
      +0       0       0       0       0
  4786 ;;Total ram usage:        5 bytes
  4787 ;; Hardware stack levels used: 1
  4788 ;; Hardware stack levels required when called: 6
  4789 ;; This function calls:
  4790 ;;		_lcd_4bit_send_char_data
  4791 ;;		_lcd_4bit_set_pos
  4792 ;; This function is called by:
  4793 ;;		_Welcome
  4794 ;;		_SetPassword
  4795 ;;		_AdminPassword
  4796 ;;		_GuestPassword
  4797 ;;		_SelectAdminOrGuest
  4798 ;;		_AdminLogin
  4799 ;;		_GuestLogin
  4800 ;;		_AdminControl
  4801 ;;		_GuestControl
  4802 ;;		_SystemShutDown
  4803 ;; This function uses a non-reentrant model
  4804 ;;
  4805                           
  4806                           	psect	text26
  4807   000F76                     __ptext26:
  4808                           	callstack 0
  4809   000F76                     _lcd_4bit_send_string_pos:
  4810                           	callstack 23
  4811   000F76                     
  4812                           ;ECU_Layer/LCD/ecu_lcd.c: 218:     if(((void*)0) == _lcd){
  4813   000F76  5046               	movf	lcd_4bit_send_string_pos@_lcd^0,w,c
  4814   000F78  A4D8               	btfss	status,2,c
  4815   000F7A  EFC1  F007         	goto	u3061
  4816   000F7E  EFC3  F007         	goto	u3060
  4817   000F82                     u3061:
  4818   000F82  EFC5  F007         	goto	l5008
  4819   000F86                     u3060:
  4820   000F86                     
  4821                           ;ECU_Layer/LCD/ecu_lcd.c: 220:     }
  4822   000F86  EFEC  F007         	goto	l139
  4823   000F8A                     l5008:
  4824   000F8A  C046  F040         	movff	lcd_4bit_send_string_pos@_lcd,lcd_4bit_set_pos@_lcd
  4825   000F8E  C047  F041         	movff	lcd_4bit_send_string_pos@row,lcd_4bit_set_pos@row
  4826   000F92  C048  F042         	movff	lcd_4bit_send_string_pos@column,lcd_4bit_set_pos@column
  4827   000F96  EC1D  F008         	call	_lcd_4bit_set_pos	;wreg free
  4828                           
  4829                           ;ECU_Layer/LCD/ecu_lcd.c: 223:         while(*str){
  4830   000F9A  EFDD  F007         	goto	l5014
  4831   000F9E                     l5010:
  4832                           
  4833                           ;ECU_Layer/LCD/ecu_lcd.c: 224:             lcd_4bit_send_char_data(_lcd, *str++);
  4834   000F9E  C046  F03D         	movff	lcd_4bit_send_string_pos@_lcd,lcd_4bit_send_char_data@_lcd
  4835   000FA2  C049  FFF6         	movff	lcd_4bit_send_string_pos@str,tblptrl
  4836   000FA6  C04A  FFF7         	movff	lcd_4bit_send_string_pos@str+1,tblptrh
  4837   000FAA                     	if	1	;Program memory is < 0x10000, tblptru is always zero
  4838   000FAA  6AF8               	clrf	tblptru,c
  4839   000FAC                     	endif
  4840   000FAC                     	if	0	;tblptru may be non-zero
  4841   000FAC                     	endif
  4842   000FAC  0008               	tblrd		*
  4843   000FAE  CFF5 F03E          	movff	tablat,lcd_4bit_send_char_data@data
  4844   000FB2  ECD7  F008         	call	_lcd_4bit_send_char_data	;wreg free
  4845   000FB6  4A49               	infsnz	lcd_4bit_send_string_pos@str^0,f,c
  4846   000FB8  2A4A               	incf	(lcd_4bit_send_string_pos@str+1)^0,f,c
  4847   000FBA                     l5014:
  4848                           
  4849                           ;ECU_Layer/LCD/ecu_lcd.c: 223:         while(*str){
  4850   000FBA  C049  FFF6         	movff	lcd_4bit_send_string_pos@str,tblptrl
  4851   000FBE  C04A  FFF7         	movff	lcd_4bit_send_string_pos@str+1,tblptrh
  4852   000FC2                     	if	1	;Program memory is < 0x10000, tblptru is always zero
  4853   000FC2  6AF8               	clrf	tblptru,c
  4854   000FC4                     	endif
  4855   000FC4                     	if	0	;tblptru may be non-zero
  4856   000FC4                     	endif
  4857   000FC4  0008               	tblrd		*
  4858   000FC6  50F5               	movf	tablat,w,c
  4859   000FC8  0900               	iorlw	0
  4860   000FCA  A4D8               	btfss	status,2,c
  4861   000FCC  EFEA  F007         	goto	u3071
  4862   000FD0  EFEC  F007         	goto	u3070
  4863   000FD4                     u3071:
  4864   000FD4  EFCF  F007         	goto	l5010
  4865   000FD8                     u3070:
  4866   000FD8                     l139:
  4867   000FD8  0012               	return		;funcret
  4868   000FDA                     __end_of_lcd_4bit_send_string_pos:
  4869                           	callstack 0
  4870                           
  4871 ;; *************** function _lcd_4bit_set_pos *****************
  4872 ;; Defined at:
  4873 ;;		line 312 in file "ECU_Layer/LCD/ecu_lcd.c"
  4874 ;; Parameters:    Size  Location     Type
  4875 ;;  _lcd            1   14[COMRAM] PTR const struct .
  4876 ;;		 -> LCD_1(6), 
  4877 ;;  row             1   15[COMRAM] unsigned char 
  4878 ;;  column          1   16[COMRAM] unsigned char 
  4879 ;; Auto vars:     Size  Location     Type
  4880 ;;  status          1   19[COMRAM] unsigned char 
  4881 ;; Return value:  Size  Location     Type
  4882 ;;                  1    wreg      unsigned char 
  4883 ;; Registers used:
  4884 ;;		wreg, fsr2l, fsr2h, status,2, status,0, prodl, prodh, cstack
  4885 ;; Tracked objects:
  4886 ;;		On entry : 0/0
  4887 ;;		On exit  : 0/0
  4888 ;;		Unchanged: 0/0
  4889 ;; Data sizes:     COMRAM   BANK0   BANK1   BANK2   BANK3   BANK4   BANK5   BANK6   BANK7   BANK8   BANK9  BANK10  BANK1
      +1  BANK12  BANK13  BANK14  BANK15
  4890 ;;      Params:         3       0       0       0       0       0       0       0       0       0       0       0       
      +0       0       0       0       0
  4891 ;;      Locals:         1       0       0       0       0       0       0       0       0       0       0       0       
      +0       0       0       0       0
  4892 ;;      Temps:          2       0       0       0       0       0       0       0       0       0       0       0       
      +0       0       0       0       0
  4893 ;;      Totals:         6       0       0       0       0       0       0       0       0       0       0       0       
      +0       0       0       0       0
  4894 ;;Total ram usage:        6 bytes
  4895 ;; Hardware stack levels used: 1
  4896 ;; Hardware stack levels required when called: 5
  4897 ;; This function calls:
  4898 ;;		_lcd_4bit_send_command
  4899 ;; This function is called by:
  4900 ;;		_lcd_4bit_send_char_data_pos
  4901 ;;		_lcd_4bit_send_string_pos
  4902 ;; This function uses a non-reentrant model
  4903 ;;
  4904                           
  4905                           	psect	text27
  4906   00103A                     __ptext27:
  4907                           	callstack 0
  4908   00103A                     _lcd_4bit_set_pos:
  4909                           	callstack 23
  4910   00103A                     
  4911                           ;ECU_Layer/LCD/ecu_lcd.c: 313:     Std_ReturnType status = (Std_ReturnType)0X00;
  4912   00103A  0E00               	movlw	0
  4913   00103C  6E45               	movwf	lcd_4bit_set_pos@status^0,c
  4914   00103E                     
  4915                           ;ECU_Layer/LCD/ecu_lcd.c: 314:     column--;
  4916   00103E  0642               	decf	lcd_4bit_set_pos@column^0,f,c
  4917                           
  4918                           ;ECU_Layer/LCD/ecu_lcd.c: 315:     switch(row){
  4919   001040  EF36  F008         	goto	l4968
  4920   001044                     l4964:
  4921   001044  C040  F03D         	movff	lcd_4bit_set_pos@_lcd,lcd_4bit_send_command@_lcd
  4922   001048  5042               	movf	lcd_4bit_set_pos@column^0,w,c
  4923   00104A  0F80               	addlw	128
  4924   00104C  6E3E               	movwf	lcd_4bit_send_command@command^0,c
  4925   00104E  ECAB  F008         	call	_lcd_4bit_send_command	;wreg free
  4926   001052  6E45               	movwf	lcd_4bit_set_pos@status^0,c
  4927   001054  EF4B  F008         	goto	l4970
  4928   001058                     l4966:
  4929   001058  C040  F03D         	movff	lcd_4bit_set_pos@_lcd,lcd_4bit_send_command@_lcd
  4930   00105C  5042               	movf	lcd_4bit_set_pos@column^0,w,c
  4931   00105E  0FC0               	addlw	192
  4932   001060  6E3E               	movwf	lcd_4bit_send_command@command^0,c
  4933   001062  ECAB  F008         	call	_lcd_4bit_send_command	;wreg free
  4934   001066  6E45               	movwf	lcd_4bit_set_pos@status^0,c
  4935   001068  EF4B  F008         	goto	l4970
  4936   00106C                     l4968:
  4937   00106C  5041               	movf	lcd_4bit_set_pos@row^0,w,c
  4938   00106E  6E43               	movwf	??_lcd_4bit_set_pos^0,c
  4939   001070  6A44               	clrf	(??_lcd_4bit_set_pos+1)^0,c
  4940                           
  4941                           ; Switch on 2 bytes has been partitioned into a top level switch of size 1, and 1 sub-sw
      +                          itches
  4942                           ; Switch size 1, requested type "simple"
  4943                           ; Number of cases is 1, Range of values is 0 to 0
  4944                           ; switch strategies available:
  4945                           ; Name         Instructions Cycles
  4946                           ; simple_byte            4     3 (average)
  4947                           ;	Chosen strategy is simple_byte
  4948   001072  5044               	movf	(??_lcd_4bit_set_pos+1)^0,w,c
  4949   001074  0A00               	xorlw	0	; case 0
  4950   001076  B4D8               	btfsc	status,2,c
  4951   001078  EF40  F008         	goto	l5932
  4952   00107C  EF4B  F008         	goto	l4970
  4953   001080                     l5932:
  4954                           
  4955                           ; Switch size 1, requested type "simple"
  4956                           ; Number of cases is 2, Range of values is 1 to 2
  4957                           ; switch strategies available:
  4958                           ; Name         Instructions Cycles
  4959                           ; simple_byte            7     4 (average)
  4960                           ;	Chosen strategy is simple_byte
  4961   001080  5043               	movf	??_lcd_4bit_set_pos^0,w,c
  4962   001082  0A01               	xorlw	1	; case 1
  4963   001084  B4D8               	btfsc	status,2,c
  4964   001086  EF22  F008         	goto	l4964
  4965   00108A  0A03               	xorlw	3	; case 2
  4966   00108C  B4D8               	btfsc	status,2,c
  4967   00108E  EF2C  F008         	goto	l4966
  4968   001092  EF4B  F008         	goto	l4970
  4969   001096                     l4970:
  4970                           
  4971                           ;ECU_Layer/LCD/ecu_lcd.c: 320:     return status;
  4972   001096  5045               	movf	lcd_4bit_set_pos@status^0,w,c
  4973   001098  0012               	return		;funcret
  4974   00109A                     __end_of_lcd_4bit_set_pos:
  4975                           	callstack 0
  4976                           
  4977 ;; *************** function _lcd_4bit_send_command *****************
  4978 ;; Defined at:
  4979 ;;		line 161 in file "ECU_Layer/LCD/ecu_lcd.c"
  4980 ;; Parameters:    Size  Location     Type
  4981 ;;  _lcd            1   11[COMRAM] PTR const struct .
  4982 ;;		 -> LCD_1(6), 
  4983 ;;  command         1   12[COMRAM] unsigned char 
  4984 ;; Auto vars:     Size  Location     Type
  4985 ;;  status          1   13[COMRAM] unsigned char 
  4986 ;; Return value:  Size  Location     Type
  4987 ;;                  1    wreg      unsigned char 
  4988 ;; Registers used:
  4989 ;;		wreg, fsr2l, fsr2h, status,2, status,0, prodl, prodh, cstack
  4990 ;; Tracked objects:
  4991 ;;		On entry : 0/0
  4992 ;;		On exit  : 0/0
  4993 ;;		Unchanged: 0/0
  4994 ;; Data sizes:     COMRAM   BANK0   BANK1   BANK2   BANK3   BANK4   BANK5   BANK6   BANK7   BANK8   BANK9  BANK10  BANK1
      +1  BANK12  BANK13  BANK14  BANK15
  4995 ;;      Params:         2       0       0       0       0       0       0       0       0       0       0       0       
      +0       0       0       0       0
  4996 ;;      Locals:         1       0       0       0       0       0       0       0       0       0       0       0       
      +0       0       0       0       0
  4997 ;;      Temps:          0       0       0       0       0       0       0       0       0       0       0       0       
      +0       0       0       0       0
  4998 ;;      Totals:         3       0       0       0       0       0       0       0       0       0       0       0       
      +0       0       0       0       0
  4999 ;;Total ram usage:        3 bytes
  5000 ;; Hardware stack levels used: 1
  5001 ;; Hardware stack levels required when called: 4
  5002 ;; This function calls:
  5003 ;;		_gpio_pin_write_logic
  5004 ;;		_lcd_send_4bit
  5005 ;;		_lcd_send_enable
  5006 ;; This function is called by:
  5007 ;;		_lcd_4bit_intialize
  5008 ;;		_lcd_4bit_set_pos
  5009 ;;		_Welcome
  5010 ;;		_SetPassword
  5011 ;;		_AdminPassword
  5012 ;;		_GuestPassword
  5013 ;;		_SelectAdminOrGuest
  5014 ;;		_AdminLogin
  5015 ;;		_GuestLogin
  5016 ;;		_AdminControl
  5017 ;;		_GuestControl
  5018 ;;		_SystemShutDown
  5019 ;;		_lcd_4bit_send_custom_char
  5020 ;; This function uses a non-reentrant model
  5021 ;;
  5022                           
  5023                           	psect	text28
  5024   001156                     __ptext28:
  5025                           	callstack 0
  5026   001156                     _lcd_4bit_send_command:
  5027                           	callstack 23
  5028   001156                     
  5029                           ;ECU_Layer/LCD/ecu_lcd.c: 163:     if(((void*)0) == _lcd){
  5030   001156  503D               	movf	lcd_4bit_send_command@_lcd^0,w,c
  5031   001158  A4D8               	btfss	status,2,c
  5032   00115A  EFB1  F008         	goto	u2921
  5033   00115E  EFB3  F008         	goto	u2920
  5034   001162                     u2921:
  5035   001162  EFB7  F008         	goto	l4922
  5036   001166                     u2920:
  5037   001166                     
  5038                           ;ECU_Layer/LCD/ecu_lcd.c: 164:         status = (Std_ReturnType)0X00;
  5039   001166  0E00               	movlw	0
  5040   001168  6E3F               	movwf	lcd_4bit_send_command@status^0,c
  5041                           
  5042                           ;ECU_Layer/LCD/ecu_lcd.c: 165:     }
  5043   00116A  EFD5  F008         	goto	l4924
  5044   00116E                     l4922:
  5045                           
  5046                           ;ECU_Layer/LCD/ecu_lcd.c: 167:         status = gpio_pin_write_logic(&(_lcd->lcd_rs), GP
      +                          IO_LOW);
  5047   00116E  C03D  F032         	movff	lcd_4bit_send_command@_lcd,gpio_pin_write_logic@_pin_config
  5048   001172  0E00               	movlw	0
  5049   001174  6E33               	movwf	gpio_pin_write_logic@logic^0,c
  5050   001176  ECB4  F004         	call	_gpio_pin_write_logic	;wreg free
  5051   00117A  6E3F               	movwf	lcd_4bit_send_command@status^0,c
  5052                           
  5053                           ;ECU_Layer/LCD/ecu_lcd.c: 168:         status = lcd_send_4bit(_lcd, command >> 4);
  5054   00117C  C03D  F03A         	movff	lcd_4bit_send_command@_lcd,lcd_send_4bit@_lcd
  5055   001180  383E               	swapf	lcd_4bit_send_command@command^0,w,c
  5056   001182  0B0F               	andlw	15
  5057   001184  6E3B               	movwf	lcd_send_4bit@data_command^0,c
  5058   001186  EC57  F009         	call	_lcd_send_4bit	;wreg free
  5059   00118A  6E3F               	movwf	lcd_4bit_send_command@status^0,c
  5060                           
  5061                           ;ECU_Layer/LCD/ecu_lcd.c: 169:         lcd_send_enable(_lcd);
  5062   00118C  C03D  F03A         	movff	lcd_4bit_send_command@_lcd,lcd_send_enable@_lcd
  5063   001190  EC75  F00A         	call	_lcd_send_enable	;wreg free
  5064                           
  5065                           ;ECU_Layer/LCD/ecu_lcd.c: 170:         status = lcd_send_4bit(_lcd, command);
  5066   001194  C03D  F03A         	movff	lcd_4bit_send_command@_lcd,lcd_send_4bit@_lcd
  5067   001198  C03E  F03B         	movff	lcd_4bit_send_command@command,lcd_send_4bit@data_command
  5068   00119C  EC57  F009         	call	_lcd_send_4bit	;wreg free
  5069   0011A0  6E3F               	movwf	lcd_4bit_send_command@status^0,c
  5070                           
  5071                           ;ECU_Layer/LCD/ecu_lcd.c: 171:         lcd_send_enable(_lcd);
  5072   0011A2  C03D  F03A         	movff	lcd_4bit_send_command@_lcd,lcd_send_enable@_lcd
  5073   0011A6  EC75  F00A         	call	_lcd_send_enable	;wreg free
  5074   0011AA                     l4924:
  5075                           
  5076                           ;ECU_Layer/LCD/ecu_lcd.c: 173:     return status;
  5077   0011AA  503F               	movf	lcd_4bit_send_command@status^0,w,c
  5078   0011AC  0012               	return		;funcret
  5079   0011AE                     __end_of_lcd_4bit_send_command:
  5080                           	callstack 0
  5081                           
  5082 ;; *************** function _lcd_4bit_send_char_data *****************
  5083 ;; Defined at:
  5084 ;;		line 176 in file "ECU_Layer/LCD/ecu_lcd.c"
  5085 ;; Parameters:    Size  Location     Type
  5086 ;;  _lcd            1   11[COMRAM] PTR const struct .
  5087 ;;		 -> LCD_1(6), 
  5088 ;;  data            1   12[COMRAM] unsigned char 
  5089 ;; Auto vars:     Size  Location     Type
  5090 ;;  status          1   13[COMRAM] unsigned char 
  5091 ;; Return value:  Size  Location     Type
  5092 ;;                  1    wreg      unsigned char 
  5093 ;; Registers used:
  5094 ;;		wreg, fsr2l, fsr2h, status,2, status,0, prodl, prodh, cstack
  5095 ;; Tracked objects:
  5096 ;;		On entry : 0/0
  5097 ;;		On exit  : 0/0
  5098 ;;		Unchanged: 0/0
  5099 ;; Data sizes:     COMRAM   BANK0   BANK1   BANK2   BANK3   BANK4   BANK5   BANK6   BANK7   BANK8   BANK9  BANK10  BANK1
      +1  BANK12  BANK13  BANK14  BANK15
  5100 ;;      Params:         2       0       0       0       0       0       0       0       0       0       0       0       
      +0       0       0       0       0
  5101 ;;      Locals:         1       0       0       0       0       0       0       0       0       0       0       0       
      +0       0       0       0       0
  5102 ;;      Temps:          0       0       0       0       0       0       0       0       0       0       0       0       
      +0       0       0       0       0
  5103 ;;      Totals:         3       0       0       0       0       0       0       0       0       0       0       0       
      +0       0       0       0       0
  5104 ;;Total ram usage:        3 bytes
  5105 ;; Hardware stack levels used: 1
  5106 ;; Hardware stack levels required when called: 4
  5107 ;; This function calls:
  5108 ;;		_gpio_pin_write_logic
  5109 ;;		_lcd_send_4bit
  5110 ;;		_lcd_send_enable
  5111 ;; This function is called by:
  5112 ;;		_lcd_4bit_send_char_data_pos
  5113 ;;		_lcd_4bit_send_string_pos
  5114 ;;		_lcd_4bit_send_string
  5115 ;;		_lcd_4bit_send_custom_char
  5116 ;; This function uses a non-reentrant model
  5117 ;;
  5118                           
  5119                           	psect	text29
  5120   0011AE                     __ptext29:
  5121                           	callstack 0
  5122   0011AE                     _lcd_4bit_send_char_data:
  5123                           	callstack 24
  5124   0011AE                     
  5125                           ;ECU_Layer/LCD/ecu_lcd.c: 178:     if(((void*)0) == _lcd){
  5126   0011AE  503D               	movf	lcd_4bit_send_char_data@_lcd^0,w,c
  5127   0011B0  A4D8               	btfss	status,2,c
  5128   0011B2  EFDD  F008         	goto	u2991
  5129   0011B6  EFDF  F008         	goto	u2990
  5130   0011BA                     u2991:
  5131   0011BA  EFE3  F008         	goto	l4954
  5132   0011BE                     u2990:
  5133   0011BE                     
  5134                           ;ECU_Layer/LCD/ecu_lcd.c: 179:         status = (Std_ReturnType)0X00;
  5135   0011BE  0E00               	movlw	0
  5136   0011C0  6E3F               	movwf	lcd_4bit_send_char_data@status^0,c
  5137                           
  5138                           ;ECU_Layer/LCD/ecu_lcd.c: 180:     }
  5139   0011C2  EF01  F009         	goto	l4956
  5140   0011C6                     l4954:
  5141                           
  5142                           ;ECU_Layer/LCD/ecu_lcd.c: 182:         status = gpio_pin_write_logic(&(_lcd->lcd_rs), GP
      +                          IO_HIGH);
  5143   0011C6  C03D  F032         	movff	lcd_4bit_send_char_data@_lcd,gpio_pin_write_logic@_pin_config
  5144   0011CA  0E01               	movlw	1
  5145   0011CC  6E33               	movwf	gpio_pin_write_logic@logic^0,c
  5146   0011CE  ECB4  F004         	call	_gpio_pin_write_logic	;wreg free
  5147   0011D2  6E3F               	movwf	lcd_4bit_send_char_data@status^0,c
  5148                           
  5149                           ;ECU_Layer/LCD/ecu_lcd.c: 183:         status = lcd_send_4bit(_lcd, data >> 4);
  5150   0011D4  C03D  F03A         	movff	lcd_4bit_send_char_data@_lcd,lcd_send_4bit@_lcd
  5151   0011D8  383E               	swapf	lcd_4bit_send_char_data@data^0,w,c
  5152   0011DA  0B0F               	andlw	15
  5153   0011DC  6E3B               	movwf	lcd_send_4bit@data_command^0,c
  5154   0011DE  EC57  F009         	call	_lcd_send_4bit	;wreg free
  5155   0011E2  6E3F               	movwf	lcd_4bit_send_char_data@status^0,c
  5156                           
  5157                           ;ECU_Layer/LCD/ecu_lcd.c: 184:         lcd_send_enable(_lcd);
  5158   0011E4  C03D  F03A         	movff	lcd_4bit_send_char_data@_lcd,lcd_send_enable@_lcd
  5159   0011E8  EC75  F00A         	call	_lcd_send_enable	;wreg free
  5160                           
  5161                           ;ECU_Layer/LCD/ecu_lcd.c: 185:         status = lcd_send_4bit(_lcd, data);
  5162   0011EC  C03D  F03A         	movff	lcd_4bit_send_char_data@_lcd,lcd_send_4bit@_lcd
  5163   0011F0  C03E  F03B         	movff	lcd_4bit_send_char_data@data,lcd_send_4bit@data_command
  5164   0011F4  EC57  F009         	call	_lcd_send_4bit	;wreg free
  5165   0011F8  6E3F               	movwf	lcd_4bit_send_char_data@status^0,c
  5166                           
  5167                           ;ECU_Layer/LCD/ecu_lcd.c: 186:         lcd_send_enable(_lcd);
  5168   0011FA  C03D  F03A         	movff	lcd_4bit_send_char_data@_lcd,lcd_send_enable@_lcd
  5169   0011FE  EC75  F00A         	call	_lcd_send_enable	;wreg free
  5170   001202                     l4956:
  5171                           
  5172                           ;ECU_Layer/LCD/ecu_lcd.c: 188:     return status;
  5173   001202  503F               	movf	lcd_4bit_send_char_data@status^0,w,c
  5174   001204  0012               	return		;funcret
  5175   001206                     __end_of_lcd_4bit_send_char_data:
  5176                           	callstack 0
  5177                           
  5178 ;; *************** function _lcd_send_enable *****************
  5179 ;; Defined at:
  5180 ;;		line 293 in file "ECU_Layer/LCD/ecu_lcd.c"
  5181 ;; Parameters:    Size  Location     Type
  5182 ;;  _lcd            1    8[COMRAM] PTR const struct .
  5183 ;;		 -> LCD_1(6), 
  5184 ;; Auto vars:     Size  Location     Type
  5185 ;;  status          1    9[COMRAM] unsigned char 
  5186 ;; Return value:  Size  Location     Type
  5187 ;;                  1    wreg      unsigned char 
  5188 ;; Registers used:
  5189 ;;		wreg, fsr2l, fsr2h, status,2, status,0, prodl, prodh, cstack
  5190 ;; Tracked objects:
  5191 ;;		On entry : 0/0
  5192 ;;		On exit  : 0/0
  5193 ;;		Unchanged: 0/0
  5194 ;; Data sizes:     COMRAM   BANK0   BANK1   BANK2   BANK3   BANK4   BANK5   BANK6   BANK7   BANK8   BANK9  BANK10  BANK1
      +1  BANK12  BANK13  BANK14  BANK15
  5195 ;;      Params:         1       0       0       0       0       0       0       0       0       0       0       0       
      +0       0       0       0       0
  5196 ;;      Locals:         1       0       0       0       0       0       0       0       0       0       0       0       
      +0       0       0       0       0
  5197 ;;      Temps:          0       0       0       0       0       0       0       0       0       0       0       0       
      +0       0       0       0       0
  5198 ;;      Totals:         2       0       0       0       0       0       0       0       0       0       0       0       
      +0       0       0       0       0
  5199 ;;Total ram usage:        2 bytes
  5200 ;; Hardware stack levels used: 1
  5201 ;; Hardware stack levels required when called: 3
  5202 ;; This function calls:
  5203 ;;		_gpio_pin_write_logic
  5204 ;; This function is called by:
  5205 ;;		_lcd_4bit_send_command
  5206 ;;		_lcd_4bit_send_char_data
  5207 ;;		_lcd_8bit_send_command
  5208 ;;		_lcd_8bit_send_char_data
  5209 ;; This function uses a non-reentrant model
  5210 ;;
  5211                           
  5212                           	psect	text30
  5213   0014EA                     __ptext30:
  5214                           	callstack 0
  5215   0014EA                     _lcd_send_enable:
  5216                           	callstack 23
  5217   0014EA  283A               	incf	lcd_send_enable@_lcd^0,w,c
  5218   0014EC  6E32               	movwf	gpio_pin_write_logic@_pin_config^0,c
  5219   0014EE  0E01               	movlw	1
  5220   0014F0  6E33               	movwf	gpio_pin_write_logic@logic^0,c
  5221   0014F2  ECB4  F004         	call	_gpio_pin_write_logic	;wreg free
  5222   0014F6                     
  5223                           ;ECU_Layer/LCD/ecu_lcd.c: 296:     _delay((unsigned long)((40)*(8000000/4000000.0)));
  5224   0014F6  0E1A               	movlw	26
  5225   0014F8                     u3817:
  5226   0014F8  2EE8               	decfsz	wreg,f,c
  5227   0014FA  D7FE               	bra	u3817
  5228   0014FC  D000               	nop2	
  5229   0014FE                     
  5230                           ;ECU_Layer/LCD/ecu_lcd.c: 297:     status = gpio_pin_write_logic(&(_lcd->lcd_en), GPIO_L
      +                          OW);
  5231   0014FE  283A               	incf	lcd_send_enable@_lcd^0,w,c
  5232   001500  6E32               	movwf	gpio_pin_write_logic@_pin_config^0,c
  5233   001502  0E00               	movlw	0
  5234   001504  6E33               	movwf	gpio_pin_write_logic@logic^0,c
  5235   001506  ECB4  F004         	call	_gpio_pin_write_logic	;wreg free
  5236   00150A  6E3B               	movwf	lcd_send_enable@status^0,c
  5237   00150C                     
  5238                           ;ECU_Layer/LCD/ecu_lcd.c: 298:     return status;
  5239   00150C  503B               	movf	lcd_send_enable@status^0,w,c
  5240   00150E  0012               	return		;funcret
  5241   001510                     __end_of_lcd_send_enable:
  5242                           	callstack 0
  5243                           
  5244 ;; *************** function _lcd_send_4bit *****************
  5245 ;; Defined at:
  5246 ;;		line 284 in file "ECU_Layer/LCD/ecu_lcd.c"
  5247 ;; Parameters:    Size  Location     Type
  5248 ;;  _lcd            1    8[COMRAM] PTR const struct .
  5249 ;;		 -> LCD_1(6), 
  5250 ;;  data_command    1    9[COMRAM] unsigned char 
  5251 ;; Auto vars:     Size  Location     Type
  5252 ;;  status          1   10[COMRAM] unsigned char 
  5253 ;; Return value:  Size  Location     Type
  5254 ;;                  1    wreg      unsigned char 
  5255 ;; Registers used:
  5256 ;;		wreg, fsr2l, fsr2h, status,2, status,0, prodl, prodh, cstack
  5257 ;; Tracked objects:
  5258 ;;		On entry : 0/0
  5259 ;;		On exit  : 0/0
  5260 ;;		Unchanged: 0/0
  5261 ;; Data sizes:     COMRAM   BANK0   BANK1   BANK2   BANK3   BANK4   BANK5   BANK6   BANK7   BANK8   BANK9  BANK10  BANK1
      +1  BANK12  BANK13  BANK14  BANK15
  5262 ;;      Params:         2       0       0       0       0       0       0       0       0       0       0       0       
      +0       0       0       0       0
  5263 ;;      Locals:         1       0       0       0       0       0       0       0       0       0       0       0       
      +0       0       0       0       0
  5264 ;;      Temps:          0       0       0       0       0       0       0       0       0       0       0       0       
      +0       0       0       0       0
  5265 ;;      Totals:         3       0       0       0       0       0       0       0       0       0       0       0       
      +0       0       0       0       0
  5266 ;;Total ram usage:        3 bytes
  5267 ;; Hardware stack levels used: 1
  5268 ;; Hardware stack levels required when called: 3
  5269 ;; This function calls:
  5270 ;;		_gpio_pin_write_logic
  5271 ;; This function is called by:
  5272 ;;		_lcd_4bit_send_command
  5273 ;;		_lcd_4bit_send_char_data
  5274 ;; This function uses a non-reentrant model
  5275 ;;
  5276                           
  5277                           	psect	text31
  5278   0012AE                     __ptext31:
  5279                           	callstack 0
  5280   0012AE                     _lcd_send_4bit:
  5281                           	callstack 23
  5282   0012AE  503A               	movf	lcd_send_4bit@_lcd^0,w,c
  5283   0012B0  0F02               	addlw	2
  5284   0012B2  6E32               	movwf	gpio_pin_write_logic@_pin_config^0,c
  5285   0012B4  503B               	movf	lcd_send_4bit@data_command^0,w,c
  5286   0012B6  0B01               	andlw	1
  5287   0012B8  6E33               	movwf	gpio_pin_write_logic@logic^0,c
  5288   0012BA  ECB4  F004         	call	_gpio_pin_write_logic	;wreg free
  5289   0012BE  503A               	movf	lcd_send_4bit@_lcd^0,w,c
  5290   0012C0  0F03               	addlw	3
  5291   0012C2  6E32               	movwf	gpio_pin_write_logic@_pin_config^0,c
  5292   0012C4  90D8               	bcf	status,0,c
  5293   0012C6  303B               	rrcf	lcd_send_4bit@data_command^0,w,c
  5294   0012C8  0B01               	andlw	1
  5295   0012CA  6E33               	movwf	gpio_pin_write_logic@logic^0,c
  5296   0012CC  ECB4  F004         	call	_gpio_pin_write_logic	;wreg free
  5297   0012D0  503A               	movf	lcd_send_4bit@_lcd^0,w,c
  5298   0012D2  0F04               	addlw	4
  5299   0012D4  6E32               	movwf	gpio_pin_write_logic@_pin_config^0,c
  5300   0012D6  403B               	rrncf	lcd_send_4bit@data_command^0,w,c
  5301   0012D8  42E8               	rrncf	wreg,f,c
  5302   0012DA  0B3F               	andlw	63
  5303   0012DC  0B01               	andlw	1
  5304   0012DE  6E33               	movwf	gpio_pin_write_logic@logic^0,c
  5305   0012E0  ECB4  F004         	call	_gpio_pin_write_logic	;wreg free
  5306   0012E4                     
  5307                           ;ECU_Layer/LCD/ecu_lcd.c: 289:     status = gpio_pin_write_logic(&(_lcd->lcd_data[3]), (
      +                          data_command >> 3)& 0x1);
  5308   0012E4  503A               	movf	lcd_send_4bit@_lcd^0,w,c
  5309   0012E6  0F05               	addlw	5
  5310   0012E8  6E32               	movwf	gpio_pin_write_logic@_pin_config^0,c
  5311   0012EA  383B               	swapf	lcd_send_4bit@data_command^0,w,c
  5312   0012EC  46E8               	rlncf	wreg,f,c
  5313   0012EE  0B1F               	andlw	31
  5314   0012F0  0B01               	andlw	1
  5315   0012F2  6E33               	movwf	gpio_pin_write_logic@logic^0,c
  5316   0012F4  ECB4  F004         	call	_gpio_pin_write_logic	;wreg free
  5317   0012F8  6E3C               	movwf	lcd_send_4bit@status^0,c
  5318                           
  5319                           ;ECU_Layer/LCD/ecu_lcd.c: 290:     return status;
  5320   0012FA  503C               	movf	lcd_send_4bit@status^0,w,c
  5321   0012FC  0012               	return		;funcret
  5322   0012FE                     __end_of_lcd_send_4bit:
  5323                           	callstack 0
  5324                           
  5325 ;; *************** function _gpio_pin_write_logic *****************
  5326 ;; Defined at:
  5327 ;;		line 70 in file "MCAL_Layer/GPIO/hal_gpio.c"
  5328 ;; Parameters:    Size  Location     Type
  5329 ;;  _pin_config     1    0[COMRAM] PTR const struct .
  5330 ;;		 -> keypad_1$keypad_rows_pin(4), keypad_1(8), LCD_1$lcd_data(4), LCD_1(6), 
  5331 ;;		 -> led_turn_off@pin_obj(1), led_turn_on@pin_obj(1), led_initialize@pin_obj(1), 
  5332 ;;  logic           1    1[COMRAM] enum E2979
  5333 ;; Auto vars:     Size  Location     Type
  5334 ;;  status          1    7[COMRAM] unsigned char 
  5335 ;; Return value:  Size  Location     Type
  5336 ;;                  1    wreg      unsigned char 
  5337 ;; Registers used:
  5338 ;;		wreg, fsr2l, fsr2h, status,2, status,0, prodl, prodh
  5339 ;; Tracked objects:
  5340 ;;		On entry : 0/0
  5341 ;;		On exit  : 0/0
  5342 ;;		Unchanged: 0/0
  5343 ;; Data sizes:     COMRAM   BANK0   BANK1   BANK2   BANK3   BANK4   BANK5   BANK6   BANK7   BANK8   BANK9  BANK10  BANK1
      +1  BANK12  BANK13  BANK14  BANK15
  5344 ;;      Params:         2       0       0       0       0       0       0       0       0       0       0       0       
      +0       0       0       0       0
  5345 ;;      Locals:         1       0       0       0       0       0       0       0       0       0       0       0       
      +0       0       0       0       0
  5346 ;;      Temps:          5       0       0       0       0       0       0       0       0       0       0       0       
      +0       0       0       0       0
  5347 ;;      Totals:         8       0       0       0       0       0       0       0       0       0       0       0       
      +0       0       0       0       0
  5348 ;;Total ram usage:        8 bytes
  5349 ;; Hardware stack levels used: 1
  5350 ;; Hardware stack levels required when called: 2
  5351 ;; This function calls:
  5352 ;;		Nothing
  5353 ;; This function is called by:
  5354 ;;		_keypad_get_value
  5355 ;;		_lcd_4bit_send_command
  5356 ;;		_lcd_4bit_send_char_data
  5357 ;;		_lcd_send_4bit
  5358 ;;		_lcd_send_enable
  5359 ;;		_led_turn_on
  5360 ;;		_gpio_pin_intialize
  5361 ;;		_lcd_8bit_send_command
  5362 ;;		_lcd_8bit_send_char_data
  5363 ;;		_led_turn_off
  5364 ;; This function uses a non-reentrant model
  5365 ;;
  5366                           
  5367                           	psect	text32
  5368   000968                     __ptext32:
  5369                           	callstack 0
  5370   000968                     _gpio_pin_write_logic:
  5371                           	callstack 24
  5372   000968                     
  5373                           ;MCAL_Layer/GPIO/hal_gpio.c: 71:     Std_ReturnType status = (Std_ReturnType)0X01;
  5374   000968  0E01               	movlw	1
  5375   00096A  6E39               	movwf	gpio_pin_write_logic@status^0,c
  5376                           
  5377                           ;MCAL_Layer/GPIO/hal_gpio.c: 72:     if(((void*)0) == _pin_config || _pin_config->pin > 
      +                          8 -1){
  5378   00096C  5032               	movf	gpio_pin_write_logic@_pin_config^0,w,c
  5379   00096E  B4D8               	btfsc	status,2,c
  5380   000970  EFBC  F004         	goto	u2881
  5381   000974  EFBE  F004         	goto	u2880
  5382   000978                     u2881:
  5383   000978  EFCE  F004         	goto	l4876
  5384   00097C                     u2880:
  5385   00097C  5032               	movf	gpio_pin_write_logic@_pin_config^0,w,c
  5386   00097E  6ED9               	movwf	fsr2l,c
  5387   000980  6ADA               	clrf	fsr2h,c
  5388   000982  30DF               	rrcf	223,w,c
  5389   000984  32E8               	rrcf	wreg,f,c
  5390   000986  32E8               	rrcf	wreg,f,c
  5391   000988  0B07               	andlw	7
  5392   00098A  6E34               	movwf	??_gpio_pin_write_logic^0,c
  5393   00098C  0E07               	movlw	7
  5394   00098E  6434               	cpfsgt	??_gpio_pin_write_logic^0,c
  5395   000990  EFCC  F004         	goto	u2891
  5396   000994  EFCE  F004         	goto	u2890
  5397   000998                     u2891:
  5398   000998  EF25  F005         	goto	l4884
  5399   00099C                     u2890:
  5400   00099C                     l4876:
  5401                           
  5402                           ;MCAL_Layer/GPIO/hal_gpio.c: 73:         status = (Std_ReturnType)0X00;
  5403   00099C  0E00               	movlw	0
  5404   00099E  6E39               	movwf	gpio_pin_write_logic@status^0,c
  5405                           
  5406                           ;MCAL_Layer/GPIO/hal_gpio.c: 74:     }
  5407   0009A0  EF3A  F005         	goto	l4886
  5408   0009A4                     l4878:
  5409                           
  5410                           ;MCAL_Layer/GPIO/hal_gpio.c: 78:                 (*lat_register[_pin_config->port] &= ~(
      +                          (uint8)1 << _pin_config->pin));
  5411   0009A4  5032               	movf	gpio_pin_write_logic@_pin_config^0,w,c
  5412   0009A6  6ED9               	movwf	fsr2l,c
  5413   0009A8  6ADA               	clrf	fsr2h,c
  5414   0009AA  30DF               	rrcf	223,w,c
  5415   0009AC  32E8               	rrcf	wreg,f,c
  5416   0009AE  32E8               	rrcf	wreg,f,c
  5417   0009B0  0B07               	andlw	7
  5418   0009B2  6E34               	movwf	??_gpio_pin_write_logic^0,c
  5419   0009B4  0E01               	movlw	1
  5420   0009B6  6E35               	movwf	(??_gpio_pin_write_logic+1)^0,c
  5421   0009B8  2A34               	incf	??_gpio_pin_write_logic^0,f,c
  5422   0009BA  EFE1  F004         	goto	u2904
  5423   0009BE                     u2905:
  5424   0009BE  90D8               	bcf	status,0,c
  5425   0009C0  3635               	rlcf	(??_gpio_pin_write_logic+1)^0,f,c
  5426   0009C2                     u2904:
  5427   0009C2  2E34               	decfsz	??_gpio_pin_write_logic^0,f,c
  5428   0009C4  EFDF  F004         	goto	u2905
  5429   0009C8  5035               	movf	(??_gpio_pin_write_logic+1)^0,w,c
  5430   0009CA  0AFF               	xorlw	255
  5431   0009CC  6E36               	movwf	(??_gpio_pin_write_logic+2)^0,c
  5432   0009CE  5032               	movf	gpio_pin_write_logic@_pin_config^0,w,c
  5433   0009D0  6ED9               	movwf	fsr2l,c
  5434   0009D2  6ADA               	clrf	fsr2h,c
  5435   0009D4  50DF               	movf	223,w,c
  5436   0009D6  0B07               	andlw	7
  5437   0009D8  0D02               	mullw	2
  5438   0009DA  50F3               	movf	243,w,c
  5439   0009DC  0F5B               	addlw	low _lat_register
  5440   0009DE  6ED9               	movwf	fsr2l,c
  5441   0009E0  6ADA               	clrf	fsr2h,c
  5442   0009E2  CFDE F037          	movff	postinc2,??_gpio_pin_write_logic+3
  5443   0009E6  CFDD F038          	movff	postdec2,??_gpio_pin_write_logic+4
  5444   0009EA  C037  FFD9         	movff	??_gpio_pin_write_logic+3,fsr2l
  5445   0009EE  C038  FFDA         	movff	??_gpio_pin_write_logic+4,fsr2h
  5446   0009F2  5036               	movf	(??_gpio_pin_write_logic+2)^0,w,c
  5447   0009F4  16DF               	andwf	indf2,f,c
  5448                           
  5449                           ;MCAL_Layer/GPIO/hal_gpio.c: 79:             break;
  5450   0009F6  EF3A  F005         	goto	l4886
  5451   0009FA                     l4880:
  5452                           
  5453                           ;MCAL_Layer/GPIO/hal_gpio.c: 81:                 (*lat_register[_pin_config->port] |= ((
      +                          uint8)1 << _pin_config->pin));
  5454   0009FA  5032               	movf	gpio_pin_write_logic@_pin_config^0,w,c
  5455   0009FC  6ED9               	movwf	fsr2l,c
  5456   0009FE  6ADA               	clrf	fsr2h,c
  5457   000A00  30DF               	rrcf	223,w,c
  5458   000A02  32E8               	rrcf	wreg,f,c
  5459   000A04  32E8               	rrcf	wreg,f,c
  5460   000A06  0B07               	andlw	7
  5461   000A08  6E34               	movwf	??_gpio_pin_write_logic^0,c
  5462   000A0A  0E01               	movlw	1
  5463   000A0C  6E35               	movwf	(??_gpio_pin_write_logic+1)^0,c
  5464   000A0E  2A34               	incf	??_gpio_pin_write_logic^0,f,c
  5465   000A10  EF0C  F005         	goto	u2914
  5466   000A14                     u2915:
  5467   000A14  90D8               	bcf	status,0,c
  5468   000A16  3635               	rlcf	(??_gpio_pin_write_logic+1)^0,f,c
  5469   000A18                     u2914:
  5470   000A18  2E34               	decfsz	??_gpio_pin_write_logic^0,f,c
  5471   000A1A  EF0A  F005         	goto	u2915
  5472   000A1E  5032               	movf	gpio_pin_write_logic@_pin_config^0,w,c
  5473   000A20  6ED9               	movwf	fsr2l,c
  5474   000A22  6ADA               	clrf	fsr2h,c
  5475   000A24  50DF               	movf	223,w,c
  5476   000A26  0B07               	andlw	7
  5477   000A28  0D02               	mullw	2
  5478   000A2A  50F3               	movf	243,w,c
  5479   000A2C  0F5B               	addlw	low _lat_register
  5480   000A2E  6ED9               	movwf	fsr2l,c
  5481   000A30  6ADA               	clrf	fsr2h,c
  5482   000A32  CFDE F036          	movff	postinc2,??_gpio_pin_write_logic+2
  5483   000A36  CFDD F037          	movff	postdec2,??_gpio_pin_write_logic+3
  5484   000A3A  C036  FFD9         	movff	??_gpio_pin_write_logic+2,fsr2l
  5485   000A3E  C037  FFDA         	movff	??_gpio_pin_write_logic+3,fsr2h
  5486   000A42  5035               	movf	(??_gpio_pin_write_logic+1)^0,w,c
  5487   000A44  12DF               	iorwf	indf2,f,c
  5488                           
  5489                           ;MCAL_Layer/GPIO/hal_gpio.c: 82:             break;
  5490   000A46  EF3A  F005         	goto	l4886
  5491   000A4A                     l4884:
  5492   000A4A  5033               	movf	gpio_pin_write_logic@logic^0,w,c
  5493   000A4C  6E34               	movwf	??_gpio_pin_write_logic^0,c
  5494   000A4E  6A35               	clrf	(??_gpio_pin_write_logic+1)^0,c
  5495                           
  5496                           ; Switch on 2 bytes has been partitioned into a top level switch of size 1, and 1 sub-sw
      +                          itches
  5497                           ; Switch size 1, requested type "simple"
  5498                           ; Number of cases is 1, Range of values is 0 to 0
  5499                           ; switch strategies available:
  5500                           ; Name         Instructions Cycles
  5501                           ; simple_byte            4     3 (average)
  5502                           ;	Chosen strategy is simple_byte
  5503   000A50  5035               	movf	(??_gpio_pin_write_logic+1)^0,w,c
  5504   000A52  0A00               	xorlw	0	; case 0
  5505   000A54  B4D8               	btfsc	status,2,c
  5506   000A56  EF2F  F005         	goto	l5934
  5507   000A5A  EFCE  F004         	goto	l4876
  5508   000A5E                     l5934:
  5509                           
  5510                           ; Switch size 1, requested type "simple"
  5511                           ; Number of cases is 2, Range of values is 0 to 1
  5512                           ; switch strategies available:
  5513                           ; Name         Instructions Cycles
  5514                           ; simple_byte            7     4 (average)
  5515                           ;	Chosen strategy is simple_byte
  5516   000A5E  5034               	movf	??_gpio_pin_write_logic^0,w,c
  5517   000A60  0A00               	xorlw	0	; case 0
  5518   000A62  B4D8               	btfsc	status,2,c
  5519   000A64  EFD2  F004         	goto	l4878
  5520   000A68  0A01               	xorlw	1	; case 1
  5521   000A6A  B4D8               	btfsc	status,2,c
  5522   000A6C  EFFD  F004         	goto	l4880
  5523   000A70  EFCE  F004         	goto	l4876
  5524   000A74                     l4886:
  5525                           
  5526                           ;MCAL_Layer/GPIO/hal_gpio.c: 86:     return status;
  5527   000A74  5039               	movf	gpio_pin_write_logic@status^0,w,c
  5528   000A76  0012               	return		;funcret
  5529   000A78                     __end_of_gpio_pin_write_logic:
  5530                           	callstack 0
  5531                           
  5532 ;; *************** function _Interrupt_Manager *****************
  5533 ;; Defined at:
  5534 ;;		line 29 in file "MCAL_Layer/Interrupt/mcal_interrupt_manager.c"
  5535 ;; Parameters:    Size  Location     Type
  5536 ;;		None
  5537 ;; Auto vars:     Size  Location     Type
  5538 ;;		None
  5539 ;; Return value:  Size  Location     Type
  5540 ;;                  1    wreg      void 
  5541 ;; Registers used:
  5542 ;;		wreg, status,2, status,0, cstack
  5543 ;; Tracked objects:
  5544 ;;		On entry : 0/0
  5545 ;;		On exit  : 0/0
  5546 ;;		Unchanged: 0/0
  5547 ;; Data sizes:     COMRAM   BANK0   BANK1   BANK2   BANK3   BANK4   BANK5   BANK6   BANK7   BANK8   BANK9  BANK10  BANK1
      +1  BANK12  BANK13  BANK14  BANK15
  5548 ;;      Params:         0       0       0       0       0       0       0       0       0       0       0       0       
      +0       0       0       0       0
  5549 ;;      Locals:         0       0       0       0       0       0       0       0       0       0       0       0       
      +0       0       0       0       0
  5550 ;;      Temps:          0       0       0       0       0       0       0       0       0       0       0       0       
      +0       0       0       0       0
  5551 ;;      Totals:         0       0       0       0       0       0       0       0       0       0       0       0       
      +0       0       0       0       0
  5552 ;;Total ram usage:        0 bytes
  5553 ;; Hardware stack levels used: 1
  5554 ;; Hardware stack levels required when called: 1
  5555 ;; This function calls:
  5556 ;;		_EUSART_RX_ISR
  5557 ;;		_EUSART_TX_ISR
  5558 ;;		_MSSP_I2C_BUS_Colision
  5559 ;;		_MSSP_I2C_ISR
  5560 ;; This function is called by:
  5561 ;;		Interrupt level 2
  5562 ;; This function uses a non-reentrant model
  5563 ;;
  5564                           
  5565                           	psect	intcode
  5566   000008                     __pintcode:
  5567                           	callstack 0
  5568   000008                     _Interrupt_Manager:
  5569                           	callstack 21
  5570                           
  5571                           ;incstack = 0
  5572   000008  827C               	bsf	int$flags,1,c	;set compiler interrupt flag (level 2)
  5573   00000A  EDD1  F006         	call	int_func,f	;refresh shadow registers
  5574                           
  5575                           	psect	intcode_body
  5576   000DA2                     __pintcode_body:
  5577                           	callstack 21
  5578   000DA2                     int_func:
  5579                           	callstack 21
  5580   000DA2  0006               	pop		; remove dummy address from shadow register refresh
  5581   000DA4                     
  5582                           ;MCAL_Layer/Interrupt/mcal_interrupt_manager.c: 147:     if((1 == PIE1bits.TXIE) && (1 =
      +                          = PIR1bits.TXIF)){
  5583   000DA4  A89D               	btfss	157,4,c	;volatile
  5584   000DA6  EFD7  F006         	goto	i2u211_41
  5585   000DAA  EFD9  F006         	goto	i2u211_40
  5586   000DAE                     i2u211_41:
  5587   000DAE  EFE2  F006         	goto	i2l1046
  5588   000DB2                     i2u211_40:
  5589   000DB2  A89E               	btfss	158,4,c	;volatile
  5590   000DB4  EFDE  F006         	goto	i2u212_41
  5591   000DB8  EFE0  F006         	goto	i2u212_40
  5592   000DBC                     i2u212_41:
  5593   000DBC  EFE2  F006         	goto	i2l1046
  5594   000DC0                     i2u212_40:
  5595   000DC0                     
  5596                           ;MCAL_Layer/Interrupt/mcal_interrupt_manager.c: 148:         EUSART_TX_ISR();
  5597   000DC0  ECB5  F00A         	call	_EUSART_TX_ISR	;wreg free
  5598   000DC4                     i2l1046:
  5599                           
  5600                           ;MCAL_Layer/Interrupt/mcal_interrupt_manager.c: 154:     if((1 == PIE1bits.RCIE) && (1 =
      +                          = PIR1bits.RCIF)){
  5601   000DC4  AA9D               	btfss	157,5,c	;volatile
  5602   000DC6  EFE7  F006         	goto	i2u213_41
  5603   000DCA  EFE9  F006         	goto	i2u213_40
  5604   000DCE                     i2u213_41:
  5605   000DCE  EFF2  F006         	goto	i2l1048
  5606   000DD2                     i2u213_40:
  5607   000DD2  AA9E               	btfss	158,5,c	;volatile
  5608   000DD4  EFEE  F006         	goto	i2u214_41
  5609   000DD8  EFF0  F006         	goto	i2u214_40
  5610   000DDC                     i2u214_41:
  5611   000DDC  EFF2  F006         	goto	i2l1048
  5612   000DE0                     i2u214_40:
  5613   000DE0                     
  5614                           ;MCAL_Layer/Interrupt/mcal_interrupt_manager.c: 155:         EUSART_RX_ISR();
  5615   000DE0  ECB7  F00A         	call	_EUSART_RX_ISR	;wreg free
  5616   000DE4                     i2l1048:
  5617                           
  5618                           ;MCAL_Layer/Interrupt/mcal_interrupt_manager.c: 161:     if((1 == PIE1bits.SSPIE) && (1 
      +                          == PIR1bits.SSPIF)){
  5619   000DE4  A69D               	btfss	157,3,c	;volatile
  5620   000DE6  EFF7  F006         	goto	i2u215_41
  5621   000DEA  EFF9  F006         	goto	i2u215_40
  5622   000DEE                     i2u215_41:
  5623   000DEE  EF02  F007         	goto	i2l1050
  5624   000DF2                     i2u215_40:
  5625   000DF2  A69E               	btfss	158,3,c	;volatile
  5626   000DF4  EFFE  F006         	goto	i2u216_41
  5627   000DF8  EF00  F007         	goto	i2u216_40
  5628   000DFC                     i2u216_41:
  5629   000DFC  EF02  F007         	goto	i2l1050
  5630   000E00                     i2u216_40:
  5631   000E00                     
  5632                           ;MCAL_Layer/Interrupt/mcal_interrupt_manager.c: 162:         MSSP_I2C_ISR();
  5633   000E00  ECB1  F00A         	call	_MSSP_I2C_ISR	;wreg free
  5634   000E04                     i2l1050:
  5635                           
  5636                           ;MCAL_Layer/Interrupt/mcal_interrupt_manager.c: 168:     if((1 == PIE2bits.BCLIE) && (1 
      +                          == PIR2bits.BCLIF)){
  5637   000E04  A6A0               	btfss	160,3,c	;volatile
  5638   000E06  EF07  F007         	goto	i2u217_41
  5639   000E0A  EF09  F007         	goto	i2u217_40
  5640   000E0E                     i2u217_41:
  5641   000E0E  EF12  F007         	goto	i2l1053
  5642   000E12                     i2u217_40:
  5643   000E12  A6A1               	btfss	161,3,c	;volatile
  5644   000E14  EF0E  F007         	goto	i2u218_41
  5645   000E18  EF10  F007         	goto	i2u218_40
  5646   000E1C                     i2u218_41:
  5647   000E1C  EF12  F007         	goto	i2l1053
  5648   000E20                     i2u218_40:
  5649   000E20                     
  5650                           ;MCAL_Layer/Interrupt/mcal_interrupt_manager.c: 169:         MSSP_I2C_BUS_Colision();
  5651   000E20  ECB3  F00A         	call	_MSSP_I2C_BUS_Colision	;wreg free
  5652   000E24                     i2l1053:
  5653   000E24  927C               	bcf	int$flags,1,c	;clear compiler interrupt flag (level 2)
  5654   000E26  0011               	retfie		f
  5655   000E28                     __end_of_Interrupt_Manager:
  5656                           	callstack 0
  5657                           
  5658 ;; *************** function _MSSP_I2C_ISR *****************
  5659 ;; Defined at:
  5660 ;;		line 255 in file "MCAL_Layer/I2C/hal_i2c.c"
  5661 ;; Parameters:    Size  Location     Type
  5662 ;;		None
  5663 ;; Auto vars:     Size  Location     Type
  5664 ;;		None
  5665 ;; Return value:  Size  Location     Type
  5666 ;;                  1    wreg      void 
  5667 ;; Registers used:
  5668 ;;		None
  5669 ;; Tracked objects:
  5670 ;;		On entry : 0/0
  5671 ;;		On exit  : 0/0
  5672 ;;		Unchanged: 0/0
  5673 ;; Data sizes:     COMRAM   BANK0   BANK1   BANK2   BANK3   BANK4   BANK5   BANK6   BANK7   BANK8   BANK9  BANK10  BANK1
      +1  BANK12  BANK13  BANK14  BANK15
  5674 ;;      Params:         0       0       0       0       0       0       0       0       0       0       0       0       
      +0       0       0       0       0
  5675 ;;      Locals:         0       0       0       0       0       0       0       0       0       0       0       0       
      +0       0       0       0       0
  5676 ;;      Temps:          0       0       0       0       0       0       0       0       0       0       0       0       
      +0       0       0       0       0
  5677 ;;      Totals:         0       0       0       0       0       0       0       0       0       0       0       0       
      +0       0       0       0       0
  5678 ;;Total ram usage:        0 bytes
  5679 ;; Hardware stack levels used: 1
  5680 ;; This function calls:
  5681 ;;		Nothing
  5682 ;; This function is called by:
  5683 ;;		_Interrupt_Manager
  5684 ;; This function uses a non-reentrant model
  5685 ;;
  5686                           
  5687                           	psect	text34
  5688   001562                     __ptext34:
  5689                           	callstack 0
  5690   001562                     _MSSP_I2C_ISR:
  5691                           	callstack 21
  5692   001562                     
  5693                           ;MCAL_Layer/I2C/hal_i2c.c: 256:     (PIR1bits.SSPIF = 0);
  5694   001562  969E               	bcf	158,3,c	;volatile
  5695   001564  0012               	return		;funcret
  5696   001566                     __end_of_MSSP_I2C_ISR:
  5697                           	callstack 0
  5698                           
  5699 ;; *************** function _MSSP_I2C_BUS_Colision *****************
  5700 ;; Defined at:
  5701 ;;		line 262 in file "MCAL_Layer/I2C/hal_i2c.c"
  5702 ;; Parameters:    Size  Location     Type
  5703 ;;		None
  5704 ;; Auto vars:     Size  Location     Type
  5705 ;;		None
  5706 ;; Return value:  Size  Location     Type
  5707 ;;                  1    wreg      void 
  5708 ;; Registers used:
  5709 ;;		None
  5710 ;; Tracked objects:
  5711 ;;		On entry : 0/0
  5712 ;;		On exit  : 0/0
  5713 ;;		Unchanged: 0/0
  5714 ;; Data sizes:     COMRAM   BANK0   BANK1   BANK2   BANK3   BANK4   BANK5   BANK6   BANK7   BANK8   BANK9  BANK10  BANK1
      +1  BANK12  BANK13  BANK14  BANK15
  5715 ;;      Params:         0       0       0       0       0       0       0       0       0       0       0       0       
      +0       0       0       0       0
  5716 ;;      Locals:         0       0       0       0       0       0       0       0       0       0       0       0       
      +0       0       0       0       0
  5717 ;;      Temps:          0       0       0       0       0       0       0       0       0       0       0       0       
      +0       0       0       0       0
  5718 ;;      Totals:         0       0       0       0       0       0       0       0       0       0       0       0       
      +0       0       0       0       0
  5719 ;;Total ram usage:        0 bytes
  5720 ;; Hardware stack levels used: 1
  5721 ;; This function calls:
  5722 ;;		Nothing
  5723 ;; This function is called by:
  5724 ;;		_Interrupt_Manager
  5725 ;; This function uses a non-reentrant model
  5726 ;;
  5727                           
  5728                           	psect	text35
  5729   001566                     __ptext35:
  5730                           	callstack 0
  5731   001566                     _MSSP_I2C_BUS_Colision:
  5732                           	callstack 21
  5733   001566                     
  5734                           ;MCAL_Layer/I2C/hal_i2c.c: 263:     (PIR2bits.BCLIF = 0);
  5735   001566  96A1               	bcf	161,3,c	;volatile
  5736   001568  0012               	return		;funcret
  5737   00156A                     __end_of_MSSP_I2C_BUS_Colision:
  5738                           	callstack 0
  5739                           
  5740 ;; *************** function _EUSART_TX_ISR *****************
  5741 ;; Defined at:
  5742 ;;		line 296 in file "MCAL_Layer/USART/hal_usart.c"
  5743 ;; Parameters:    Size  Location     Type
  5744 ;;		None
  5745 ;; Auto vars:     Size  Location     Type
  5746 ;;		None
  5747 ;; Return value:  Size  Location     Type
  5748 ;;                  1    wreg      void 
  5749 ;; Registers used:
  5750 ;;		None
  5751 ;; Tracked objects:
  5752 ;;		On entry : 0/0
  5753 ;;		On exit  : 0/0
  5754 ;;		Unchanged: 0/0
  5755 ;; Data sizes:     COMRAM   BANK0   BANK1   BANK2   BANK3   BANK4   BANK5   BANK6   BANK7   BANK8   BANK9  BANK10  BANK1
      +1  BANK12  BANK13  BANK14  BANK15
  5756 ;;      Params:         0       0       0       0       0       0       0       0       0       0       0       0       
      +0       0       0       0       0
  5757 ;;      Locals:         0       0       0       0       0       0       0       0       0       0       0       0       
      +0       0       0       0       0
  5758 ;;      Temps:          0       0       0       0       0       0       0       0       0       0       0       0       
      +0       0       0       0       0
  5759 ;;      Totals:         0       0       0       0       0       0       0       0       0       0       0       0       
      +0       0       0       0       0
  5760 ;;Total ram usage:        0 bytes
  5761 ;; Hardware stack levels used: 1
  5762 ;; This function calls:
  5763 ;;		Nothing
  5764 ;; This function is called by:
  5765 ;;		_Interrupt_Manager
  5766 ;; This function uses a non-reentrant model
  5767 ;;
  5768                           
  5769                           	psect	text36
  5770   00156A                     __ptext36:
  5771                           	callstack 0
  5772   00156A                     _EUSART_TX_ISR:
  5773                           	callstack 21
  5774   00156A                     
  5775                           ;MCAL_Layer/USART/hal_usart.c: 297:     (PIE1bits.TXIE = 0);
  5776   00156A  989D               	bcf	157,4,c	;volatile
  5777   00156C  0012               	return		;funcret
  5778   00156E                     __end_of_EUSART_TX_ISR:
  5779                           	callstack 0
  5780                           
  5781 ;; *************** function _EUSART_RX_ISR *****************
  5782 ;; Defined at:
  5783 ;;		line 282 in file "MCAL_Layer/USART/hal_usart.c"
  5784 ;; Parameters:    Size  Location     Type
  5785 ;;		None
  5786 ;; Auto vars:     Size  Location     Type
  5787 ;;		None
  5788 ;; Return value:  Size  Location     Type
  5789 ;;                  1    wreg      void 
  5790 ;; Registers used:
  5791 ;;		wreg, status,2, status,0
  5792 ;; Tracked objects:
  5793 ;;		On entry : 0/0
  5794 ;;		On exit  : 0/0
  5795 ;;		Unchanged: 0/0
  5796 ;; Data sizes:     COMRAM   BANK0   BANK1   BANK2   BANK3   BANK4   BANK5   BANK6   BANK7   BANK8   BANK9  BANK10  BANK1
      +1  BANK12  BANK13  BANK14  BANK15
  5797 ;;      Params:         0       0       0       0       0       0       0       0       0       0       0       0       
      +0       0       0       0       0
  5798 ;;      Locals:         0       0       0       0       0       0       0       0       0       0       0       0       
      +0       0       0       0       0
  5799 ;;      Temps:          0       0       0       0       0       0       0       0       0       0       0       0       
      +0       0       0       0       0
  5800 ;;      Totals:         0       0       0       0       0       0       0       0       0       0       0       0       
      +0       0       0       0       0
  5801 ;;Total ram usage:        0 bytes
  5802 ;; Hardware stack levels used: 1
  5803 ;; This function calls:
  5804 ;;		Nothing
  5805 ;; This function is called by:
  5806 ;;		_Interrupt_Manager
  5807 ;; This function uses a non-reentrant model
  5808 ;;
  5809                           
  5810                           	psect	text37
  5811   00156E                     __ptext37:
  5812                           	callstack 0
  5813   00156E                     _EUSART_RX_ISR:
  5814                           	callstack 21
  5815   00156E  0012               	return		;funcret
  5816   001570                     __end_of_EUSART_RX_ISR:
  5817                           	callstack 0
  5818                           
  5819                           	psect	rparam
  5820   000000                     
  5821                           	psect	temp
  5822   00007C                     btemp:
  5823                           	callstack 0
  5824   00007C                     	ds	1
  5825   000000                     int$flags	set	btemp
  5826   000000                     wtemp8	set	btemp+1
  5827   000000                     ttemp5	set	btemp+1
  5828   000000                     ttemp6	set	btemp+4
  5829   000000                     ttemp7	set	btemp+8
  5830                           
  5831                           	psect	config
  5832                           
  5833                           ; Padding undefined space
  5834   300000                     	org	3145728
  5835   300000  FF                 	db	255
  5836                           
  5837                           ;Config register CONFIG1H @ 0x300001
  5838                           ;	Oscillator Selection bits
  5839                           ;	OSC = HS, HS oscillator
  5840                           ;	Fail-Safe Clock Monitor Enable bit
  5841                           ;	FCMEN = OFF, Fail-Safe Clock Monitor disabled
  5842                           ;	Internal/External Oscillator Switchover bit
  5843                           ;	IESO = OFF, Oscillator Switchover mode disabled
  5844   300001                     	org	3145729
  5845   300001  02                 	db	2
  5846                           
  5847                           ;Config register CONFIG2L @ 0x300002
  5848                           ;	Power-up Timer Enable bit
  5849                           ;	PWRT = OFF, PWRT disabled
  5850                           ;	Brown-out Reset Enable bits
  5851                           ;	BOREN = OFF, Brown-out Reset disabled in hardware and software
  5852                           ;	Brown Out Reset Voltage bits
  5853                           ;	BORV = 1, 
  5854   300002                     	org	3145730
  5855   300002  09                 	db	9
  5856                           
  5857                           ;Config register CONFIG2H @ 0x300003
  5858                           ;	Watchdog Timer Enable bit
  5859                           ;	WDT = OFF, WDT disabled (control is placed on the SWDTEN bit)
  5860                           ;	Watchdog Timer Postscale Select bits
  5861                           ;	WDTPS = 32768, 1:32768
  5862   300003                     	org	3145731
  5863   300003  1E                 	db	30
  5864                           
  5865                           ; Padding undefined space
  5866   300004                     	org	3145732
  5867   300004  FF                 	db	255
  5868                           
  5869                           ;Config register CONFIG3H @ 0x300005
  5870                           ;	CCP2 MUX bit
  5871                           ;	CCP2MX = PORTC, CCP2 input/output is multiplexed with RC1
  5872                           ;	PORTB A/D Enable bit
  5873                           ;	PBADEN = OFF, PORTB<4:0> pins are configured as digital I/O on Reset
  5874                           ;	Low-Power Timer1 Oscillator Enable bit
  5875                           ;	LPT1OSC = OFF, Timer1 configured for higher power operation
  5876                           ;	MCLR Pin Enable bit
  5877                           ;	MCLRE = ON, MCLR pin enabled; RE3 input pin disabled
  5878   300005                     	org	3145733
  5879   300005  81                 	db	129
  5880                           
  5881                           ;Config register CONFIG4L @ 0x300006
  5882                           ;	Stack Full/Underflow Reset Enable bit
  5883                           ;	STVREN = ON, Stack full/underflow will cause Reset
  5884                           ;	Single-Supply ICSP Enable bit
  5885                           ;	LVP = OFF, Single-Supply ICSP disabled
  5886                           ;	Extended Instruction Set Enable bit
  5887                           ;	XINST = OFF, Instruction set extension and Indexed Addressing mode disabled (Legacy mo
      +                          de)
  5888                           ;	Background Debugger Enable bit
  5889                           ;	DEBUG = 0x1, unprogrammed default
  5890   300006                     	org	3145734
  5891   300006  81                 	db	129
  5892                           
  5893                           ; Padding undefined space
  5894   300007                     	org	3145735
  5895   300007  FF                 	db	255
  5896                           
  5897                           ;Config register CONFIG5L @ 0x300008
  5898                           ;	Code Protection bit
  5899                           ;	CP0 = OFF, Block 0 (000800-003FFFh) not code-protected
  5900                           ;	Code Protection bit
  5901                           ;	CP1 = OFF, Block 1 (004000-007FFFh) not code-protected
  5902                           ;	Code Protection bit
  5903                           ;	CP2 = OFF, Block 2 (008000-00BFFFh) not code-protected
  5904                           ;	Code Protection bit
  5905                           ;	CP3 = OFF, Block 3 (00C000-00FFFFh) not code-protected
  5906   300008                     	org	3145736
  5907   300008  0F                 	db	15
  5908                           
  5909                           ;Config register CONFIG5H @ 0x300009
  5910                           ;	Boot Block Code Protection bit
  5911                           ;	CPB = OFF, Boot block (000000-0007FFh) not code-protected
  5912                           ;	Data EEPROM Code Protection bit
  5913                           ;	CPD = OFF, Data EEPROM not code-protected
  5914   300009                     	org	3145737
  5915   300009  C0                 	db	192
  5916                           
  5917                           ;Config register CONFIG6L @ 0x30000A
  5918                           ;	Write Protection bit
  5919                           ;	WRT0 = OFF, Block 0 (000800-003FFFh) not write-protected
  5920                           ;	Write Protection bit
  5921                           ;	WRT1 = OFF, Block 1 (004000-007FFFh) not write-protected
  5922                           ;	Write Protection bit
  5923                           ;	WRT2 = OFF, Block 2 (008000-00BFFFh) not write-protected
  5924                           ;	Write Protection bit
  5925                           ;	WRT3 = OFF, Block 3 (00C000-00FFFFh) not write-protected
  5926   30000A                     	org	3145738
  5927   30000A  0F                 	db	15
  5928                           
  5929                           ;Config register CONFIG6H @ 0x30000B
  5930                           ;	Configuration Register Write Protection bit
  5931                           ;	WRTC = OFF, Configuration registers (300000-3000FFh) not write-protected
  5932                           ;	Boot Block Write Protection bit
  5933                           ;	WRTB = OFF, Boot Block (000000-0007FFh) not write-protected
  5934                           ;	Data EEPROM Write Protection bit
  5935                           ;	WRTD = OFF, Data EEPROM not write-protected
  5936   30000B                     	org	3145739
  5937   30000B  E0                 	db	224
  5938                           
  5939                           ;Config register CONFIG7L @ 0x30000C
  5940                           ;	Table Read Protection bit
  5941                           ;	EBTR0 = OFF, Block 0 (000800-003FFFh) not protected from table reads executed in other
      +                           blocks
  5942                           ;	Table Read Protection bit
  5943                           ;	EBTR1 = OFF, Block 1 (004000-007FFFh) not protected from table reads executed in other
      +                           blocks
  5944                           ;	Table Read Protection bit
  5945                           ;	EBTR2 = OFF, Block 2 (008000-00BFFFh) not protected from table reads executed in other
      +                           blocks
  5946                           ;	Table Read Protection bit
  5947                           ;	EBTR3 = OFF, Block 3 (00C000-00FFFFh) not protected from table reads executed in other
      +                           blocks
  5948   30000C                     	org	3145740
  5949   30000C  0F                 	db	15
  5950                           
  5951                           ;Config register CONFIG7H @ 0x30000D
  5952                           ;	Boot Block Table Read Protection bit
  5953                           ;	EBTRB = OFF, Boot Block (000000-0007FFh) not protected from table reads executed in ot
      +                          her blocks
  5954   30000D                     	org	3145741
  5955   30000D  40                 	db	64
  5956                           tosu	equ	0xFFF
  5957                           tosh	equ	0xFFE
  5958                           tosl	equ	0xFFD
  5959                           stkptr	equ	0xFFC
  5960                           pclatu	equ	0xFFB
  5961                           pclath	equ	0xFFA
  5962                           pcl	equ	0xFF9
  5963                           tblptru	equ	0xFF8
  5964                           tblptrh	equ	0xFF7
  5965                           tblptrl	equ	0xFF6
  5966                           tablat	equ	0xFF5
  5967                           prodh	equ	0xFF4
  5968                           prodl	equ	0xFF3
  5969                           indf0	equ	0xFEF
  5970                           postinc0	equ	0xFEE
  5971                           postdec0	equ	0xFED
  5972                           preinc0	equ	0xFEC
  5973                           plusw0	equ	0xFEB
  5974                           fsr0h	equ	0xFEA
  5975                           fsr0l	equ	0xFE9
  5976                           wreg	equ	0xFE8
  5977                           indf1	equ	0xFE7
  5978                           postinc1	equ	0xFE6
  5979                           postdec1	equ	0xFE5
  5980                           preinc1	equ	0xFE4
  5981                           plusw1	equ	0xFE3
  5982                           fsr1h	equ	0xFE2
  5983                           fsr1l	equ	0xFE1
  5984                           bsr	equ	0xFE0
  5985                           indf2	equ	0xFDF
  5986                           postinc2	equ	0xFDE
  5987                           postdec2	equ	0xFDD
  5988                           preinc2	equ	0xFDC
  5989                           plusw2	equ	0xFDB
  5990                           fsr2h	equ	0xFDA
  5991                           fsr2l	equ	0xFD9
  5992                           status	equ	0xFD8

Data Sizes:
    Strings     273
    Constant    16
    Data        51
    BSS         49
    Persistent  0
    Stack       0

Auto Spaces:
    Space          Size  Autos    Used
    COMRAM          126     41     123
    BANK0           128      0      18
    BANK1           256      0       0
    BANK2           256      0       0
    BANK3           256      0       0
    BANK4           256      0       0
    BANK5           256      0       0
    BANK6           256      0       0
    BANK7           256      0       0
    BANK8           256      0       0
    BANK9           256      0       0
    BANK10          256      0       0
    BANK11          256      0       0
    BANK12          256      0       0
    BANK13          256      0       0
    BANK14          256      0       0
    BANK15          128      0       0

Pointer List with Targets:

    EEPROM_Data_Read@Data	PTR unsigned char  size(1) Largest target is 4
		 -> AdminLogin@password(COMRAM[4]), GuestLogin@password(COMRAM[4]), SetPassword@value(COMRAM[1]), 

    eusart_Async_RX_Init@_usart$EUSART_FramingErrorHandler	PTR FTN()void  size(2) Largest target is 0

    eusart_Async_RX_Init@_usart$EUSART_OverrunErrorHandler	PTR FTN()void  size(2) Largest target is 0

    eusart_Async_RX_Init@_usart$EUSART_RXInterruptHandler	PTR FTN()void  size(2) Largest target is 0

    eusart_Async_RX_Init@_usart$EUSART_TXInterruptHandler	PTR FTN()void  size(2) Largest target is 0

    eusart_Async_TX_Init@_usart$EUSART_FramingErrorHandler	PTR FTN()void  size(2) Largest target is 0

    eusart_Async_TX_Init@_usart$EUSART_OverrunErrorHandler	PTR FTN()void  size(2) Largest target is 0

    eusart_Async_TX_Init@_usart$EUSART_RXInterruptHandler	PTR FTN()void  size(2) Largest target is 0

    eusart_Async_TX_Init@_usart$EUSART_TXInterruptHandler	PTR FTN()void  size(2) Largest target is 0

    eusart_BaudRate_Calculation@_usart$EUSART_FramingErrorHandler	PTR FTN()void  size(2) Largest target is 0

    eusart_BaudRate_Calculation@_usart$EUSART_OverrunErrorHandler	PTR FTN()void  size(2) Largest target is 0

    eusart_BaudRate_Calculation@_usart$EUSART_RXInterruptHandler	PTR FTN()void  size(2) Largest target is 0

    eusart_BaudRate_Calculation@_usart$EUSART_TXInterruptHandler	PTR FTN()void  size(2) Largest target is 0

    EUSART_FramingErr_InterruptHandler	PTR FTN()void  size(2) Largest target is 1
		 -> NULL(), 

    EUSART_OverrunErr_InterruptHandler	PTR FTN()void  size(2) Largest target is 1
		 -> NULL(), 

    EUSART_RX_InterruptHandler	PTR FTN()void  size(2) Largest target is 1
		 -> NULL(), 

    EUSART_TX_InterruptHandler	PTR FTN()void  size(2) Largest target is 1
		 -> NULL(), 

    f$.$buffer	PTR unsigned char  size(2) Largest target is 0

    f$.$source	PTR const unsigned char  size(2) Largest target is 0

    gpio_pin_direction_intialize@_pin_config	PTR const struct . size(1) Largest target is 8
		 -> keypad_1(BANK0[8]), keypad_1$keypad_columns_pin(BANK0[4]), keypad_1$keypad_rows_pin(BANK0[4]), LCD_1(COMRAM[6]), 
		 -> LCD_1$lcd_data(COMRAM[4]), led_initialize@pin_obj(COMRAM[1]), 

    gpio_pin_intialize@_pin_config	PTR const struct . size(1) Largest target is 8
		 -> keypad_1(BANK0[8]), keypad_1$keypad_rows_pin(BANK0[4]), LCD_1(COMRAM[6]), LCD_1$lcd_data(COMRAM[4]), 
		 -> led_initialize@pin_obj(COMRAM[1]), 

    gpio_pin_read_logic@_pin_config	PTR const struct . size(1) Largest target is 8
		 -> keypad_1(BANK0[8]), keypad_1$keypad_columns_pin(BANK0[4]), 

    gpio_pin_read_logic@logic	PTR enum E2979 size(1) Largest target is 1
		 -> keypad_get_value@c_logic(COMRAM[1]), 

    gpio_pin_write_logic@_pin_config	PTR const struct . size(1) Largest target is 8
		 -> keypad_1(BANK0[8]), keypad_1$keypad_rows_pin(BANK0[4]), LCD_1(COMRAM[6]), LCD_1$lcd_data(COMRAM[4]), 
		 -> led_initialize@pin_obj(COMRAM[1]), led_turn_off@pin_obj(COMRAM[1]), led_turn_on@pin_obj(COMRAM[1]), 

    I2C_Initialize@_i2c$I2C_DeaultIntrruptHandler	PTR FTN()void  size(2) Largest target is 0

    I2C_Initialize@_i2c$I2C_Report_Receive_Overflow	PTR FTN()void  size(2) Largest target is 0

    I2C_Initialize@_i2c$I2C_Report_Write_Collosion	PTR FTN()void  size(2) Largest target is 0

    INT0_Call_Back_fun	PTR FTN()void  size(2) Largest target is 1
		 -> NULL(), 

    INT1_Call_Back_fun	PTR FTN()void  size(2) Largest target is 1
		 -> NULL(), 

    INT2_Call_Back_fun	PTR FTN()void  size(2) Largest target is 1
		 -> NULL(), 

    Interrupt_INTx_Clear_Flag@obj$call_back	PTR FTN()void  size(2) Largest target is 0

    Interrupt_INTx_disable@obj$call_back	PTR FTN()void  size(2) Largest target is 0

    Interrupt_INTx_edge@obj$call_back	PTR FTN()void  size(2) Largest target is 0

    Interrupt_INTx_enable@obj$call_back	PTR FTN()void  size(2) Largest target is 0

    Interrupt_INTx_pin@obj$call_back	PTR FTN()void  size(2) Largest target is 0

    Interrupt_RBx_Call_Back@obj$HIGH_call_back	PTR FTN()void  size(2) Largest target is 0

    Interrupt_RBx_Call_Back@obj$LOW_call_back	PTR FTN()void  size(2) Largest target is 0

    Interrupt_RBx_pin@obj$HIGH_call_back	PTR FTN()void  size(2) Largest target is 0

    Interrupt_RBx_pin@obj$LOW_call_back	PTR FTN()void  size(2) Largest target is 0

    INTx_Set_Call_Back_fun@obj$call_back	PTR FTN()void  size(2) Largest target is 0

    keypad_get_value@_keypad	PTR const struct . size(1) Largest target is 8
		 -> keypad_1(BANK0[8]), 

    keypad_get_value@value	PTR unsigned char  size(1) Largest target is 1
		 -> AdminLogin@value(COMRAM[1]), AdminPassword@value(COMRAM[1]), GuestLogin@value(COMRAM[1]), GuestPassword@value(COMRAM[1]), 
		 -> SelectAdminOrGuest@value(COMRAM[1]), 

    keypad_intialize@_keypad	PTR const struct . size(1) Largest target is 8
		 -> keypad_1(BANK0[8]), 

    lat_register	PTR volatile unsigned char [5] size(2) Largest target is 1
		 -> LATA(BITBIGSFRlllll[1]), LATB(ABS[1]), LATC(SFR[1]), LATD(BITBIGSFRlllh[1]), 
		 -> LATE(BITBIGSFRlllh[1]), 

    lcd_4bit_intialize@_lcd	PTR const struct . size(1) Largest target is 6
		 -> LCD_1(COMRAM[6]), 

    lcd_4bit_send_char_data@_lcd	PTR const struct . size(1) Largest target is 6
		 -> LCD_1(COMRAM[6]), 

    lcd_4bit_send_char_data_pos@_lcd	PTR const struct . size(1) Largest target is 6
		 -> LCD_1(COMRAM[6]), 

    lcd_4bit_send_command@_lcd	PTR const struct . size(1) Largest target is 6
		 -> LCD_1(COMRAM[6]), 

    lcd_4bit_send_string_pos@_lcd	PTR const struct . size(1) Largest target is 6
		 -> LCD_1(COMRAM[6]), 

    lcd_4bit_send_string_pos@str	PTR unsigned char  size(2) Largest target is 17
		 -> STR_10(CODE[11]), STR_11(CODE[11]), STR_12(CODE[15]), STR_13(CODE[12]), 
		 -> STR_14(CODE[11]), STR_15(CODE[11]), STR_16(CODE[9]), STR_17(CODE[17]), 
		 -> STR_18(CODE[12]), STR_19(CODE[6]), STR_20(CODE[12]), STR_21(CODE[6]), 
		 -> STR_22(CODE[2]), STR_23(CODE[14]), STR_24(CODE[11]), STR_25(CODE[10]), 
		 -> STR_26(CODE[7]), STR_27(CODE[14]), STR_28(CODE[12]), STR_29(CODE[6]), 
		 -> STR_30(CODE[12]), STR_31(CODE[6]), STR_32(CODE[2]), STR_33(CODE[14]), 
		 -> STR_34(CODE[11]), STR_35(CODE[10]), STR_36(CODE[7]), STR_37(CODE[14]), 
		 -> STR_38(CODE[12]), STR_39(CODE[13]), STR_4(CODE[17]), STR_40(CODE[12]), 
		 -> STR_41(CODE[13]), STR_42(CODE[17]), STR_5(CODE[5]), STR_6(CODE[16]), 
		 -> STR_7(CODE[5]), STR_8(CODE[15]), STR_9(CODE[12]), 

    lcd_4bit_set_pos@_lcd	PTR const struct . size(1) Largest target is 6
		 -> LCD_1(COMRAM[6]), 

    lcd_send_4bit@_lcd	PTR const struct . size(1) Largest target is 6
		 -> LCD_1(COMRAM[6]), 

    lcd_send_enable@_lcd	PTR const struct . size(1) Largest target is 6
		 -> LCD_1(COMRAM[6]), 

    led_initialize@led	PTR const struct . size(1) Largest target is 1
		 -> AdminLed(COMRAM[1]), Alarm(COMRAM[1]), GuestLed(COMRAM[1]), 

    led_turn_on@led	PTR const struct . size(1) Largest target is 1
		 -> AdminLed(COMRAM[1]), Alarm(COMRAM[1]), GuestLed(COMRAM[1]), 

    Master_Mode_Clock_CFG@_i2c$I2C_DeaultIntrruptHandler	PTR FTN()void  size(2) Largest target is 0

    Master_Mode_Clock_CFG@_i2c$I2C_Report_Receive_Overflow	PTR FTN()void  size(2) Largest target is 0

    Master_Mode_Clock_CFG@_i2c$I2C_Report_Write_Collosion	PTR FTN()void  size(2) Largest target is 0

    MSSP_I2C_collision_IntrruptHandler	PTR FTN()void  size(2) Largest target is 1
		 -> NULL(), 

    MSSP_I2C_InterruptHandler	PTR FTN()void  size(2) Largest target is 1
		 -> NULL(), 

    MSSP_I2C_Intrrupt_Config@_i2c_$I2C_DeaultIntrruptHandler	PTR FTN()void  size(2) Largest target is 0

    MSSP_I2C_Intrrupt_Config@_i2c_$I2C_Report_Receive_Overflow	PTR FTN()void  size(2) Largest target is 0

    MSSP_I2C_Intrrupt_Config@_i2c_$I2C_Report_Write_Collosion	PTR FTN()void  size(2) Largest target is 0

    MSSP_I2C_Recieve_OverFlow_InterruptHandler	PTR FTN()void  size(2) Largest target is 1
		 -> NULL(), 

    port_register	PTR volatile unsigned char [5] size(2) Largest target is 1
		 -> PORTA(BITBIGSFRlllll[1]), PORTB(BITBIGSFRlllll[1]), PORTC(BITBIGSFRlllll[1]), PORTD(BITBIGSFRlllll[1]), 
		 -> PORTE(BITBIGSFRlllll[1]), 

    RB4_Call_Back_fun_HIGH	PTR FTN()void  size(2) Largest target is 1
		 -> NULL(), 

    RB4_Call_Back_fun_LOW	PTR FTN()void  size(2) Largest target is 1
		 -> NULL(), 

    RB5_Call_Back_fun_HIGH	PTR FTN()void  size(2) Largest target is 1
		 -> NULL(), 

    RB5_Call_Back_fun_LOW	PTR FTN()void  size(2) Largest target is 1
		 -> NULL(), 

    RB6_Call_Back_fun_HIGH	PTR FTN()void  size(2) Largest target is 1
		 -> NULL(), 

    RB6_Call_Back_fun_LOW	PTR FTN()void  size(2) Largest target is 1
		 -> NULL(), 

    RB7_Call_Back_fun_HIGH	PTR FTN()void  size(2) Largest target is 1
		 -> NULL(), 

    RB7_Call_Back_fun_LOW	PTR FTN()void  size(2) Largest target is 1
		 -> NULL(), 

    S1457$I2C_DeaultIntrruptHandler	PTR FTN()void  size(2) Largest target is 0

    S1457$I2C_Report_Receive_Overflow	PTR FTN()void  size(2) Largest target is 0

    S1457$I2C_Report_Write_Collosion	PTR FTN()void  size(2) Largest target is 0

    S1980$call_back	PTR FTN()void  size(2) Largest target is 0

    S2029$HIGH_call_back	PTR FTN()void  size(2) Largest target is 0

    S2029$LOW_call_back	PTR FTN()void  size(2) Largest target is 0

    S2933$EUSART_FramingErrorHandler	PTR FTN()void  size(2) Largest target is 0

    S2933$EUSART_OverrunErrorHandler	PTR FTN()void  size(2) Largest target is 0

    S2933$EUSART_RXInterruptHandler	PTR FTN()void  size(2) Largest target is 0

    S2933$EUSART_TXInterruptHandler	PTR FTN()void  size(2) Largest target is 0

    S3943$buffer	PTR unsigned char  size(2) Largest target is 0

    S3943$source	PTR const unsigned char  size(2) Largest target is 0

    Slave_Mode_Clock_CFG@_i2c$I2C_DeaultIntrruptHandler	PTR FTN()void  size(2) Largest target is 0

    Slave_Mode_Clock_CFG@_i2c$I2C_Report_Receive_Overflow	PTR FTN()void  size(2) Largest target is 0

    Slave_Mode_Clock_CFG@_i2c$I2C_Report_Write_Collosion	PTR FTN()void  size(2) Largest target is 0

    sp__memset	PTR void  size(2) Largest target is 0

    StringCompare@str1	PTR unsigned char  size(1) Largest target is 4
		 -> AdminLogin@LoginPass(COMRAM[4]), GuestLogin@LoginPass(COMRAM[4]), 

    StringCompare@str2	PTR unsigned char  size(1) Largest target is 4
		 -> AdminLogin@password(COMRAM[4]), GuestLogin@password(COMRAM[4]), 

    tris_register	PTR volatile unsigned char [5] size(2) Largest target is 1
		 -> TRISA(BITBIGSFRlllll[1]), TRISB(ABS[1]), TRISC(SFR[1]), TRISD(ABS[1]), 
		 -> TRISE(ABS[1]), 

    vfprintf$0	PTR struct _IO_FILE size(1) Largest target is 12
		 -> sprintf@f(COMRAM[12]), 

    vfprintf$1	PTR const unsigned char  size(2) Largest target is 3
		 -> STR_1(CODE[3]), STR_2(CODE[3]), STR_3(CODE[3]), 

    vfprintf$2	PTR PTR void  size(1) Largest target is 1
		 -> sprintf@ap(COMRAM[1]), 


Critical Paths under _main in COMRAM

    _main->_SelectAdminOrGuest
    _ecu_layer_intialize->_lcd_4bit_intialize
    _led_initialize->_gpio_pin_intialize
    _lcd_4bit_intialize->_lcd_4bit_send_command
    _keypad_intialize->_gpio_pin_intialize
    _gpio_pin_intialize->_gpio_pin_write_logic
    _Welcome->_lcd_4bit_send_string_pos
    _SetPassword->_AdminPassword
    _SetPassword->_GuestPassword
    _GuestPassword->_lcd_4bit_send_char_data_pos
    _GuestPassword->_lcd_4bit_send_string_pos
    _AdminPassword->_lcd_4bit_send_char_data_pos
    _AdminPassword->_lcd_4bit_send_string_pos
    _SelectAdminOrGuest->_AdminLogin
    _SelectAdminOrGuest->_GuestLogin
    _GuestLogin->_lcd_4bit_send_char_data_pos
    _GuestLogin->_lcd_4bit_send_string_pos
    _GuestControl->_lcd_4bit_send_string_pos
    _AdminLogin->_lcd_4bit_send_char_data_pos
    _AdminLogin->_lcd_4bit_send_string_pos
    _lcd_4bit_send_char_data_pos->_lcd_4bit_set_pos
    _keypad_get_value->_gpio_pin_write_logic
    _SystemShutDown->_lcd_4bit_send_string_pos
    _AdminControl->_lcd_4bit_send_string_pos
    _led_turn_on->_gpio_pin_write_logic
    _lcd_4bit_send_string_pos->_lcd_4bit_set_pos
    _lcd_4bit_set_pos->_lcd_4bit_send_command
    _lcd_4bit_send_command->_lcd_send_4bit
    _lcd_4bit_send_char_data->_lcd_send_4bit
    _lcd_send_enable->_gpio_pin_write_logic
    _lcd_send_4bit->_gpio_pin_write_logic

Critical Paths under _Interrupt_Manager in COMRAM

    None.

Critical Paths under _main in BANK0

    None.

Critical Paths under _Interrupt_Manager in BANK0

    None.

Critical Paths under _main in BANK1

    None.

Critical Paths under _Interrupt_Manager in BANK1

    None.

Critical Paths under _main in BANK2

    None.

Critical Paths under _Interrupt_Manager in BANK2

    None.

Critical Paths under _main in BANK3

    None.

Critical Paths under _Interrupt_Manager in BANK3

    None.

Critical Paths under _main in BANK4

    None.

Critical Paths under _Interrupt_Manager in BANK4

    None.

Critical Paths under _main in BANK5

    None.

Critical Paths under _Interrupt_Manager in BANK5

    None.

Critical Paths under _main in BANK6

    None.

Critical Paths under _Interrupt_Manager in BANK6

    None.

Critical Paths under _main in BANK7

    None.

Critical Paths under _Interrupt_Manager in BANK7

    None.

Critical Paths under _main in BANK8

    None.

Critical Paths under _Interrupt_Manager in BANK8

    None.

Critical Paths under _main in BANK9

    None.

Critical Paths under _Interrupt_Manager in BANK9

    None.

Critical Paths under _main in BANK10

    None.

Critical Paths under _Interrupt_Manager in BANK10

    None.

Critical Paths under _main in BANK11

    None.

Critical Paths under _Interrupt_Manager in BANK11

    None.

Critical Paths under _main in BANK12

    None.

Critical Paths under _Interrupt_Manager in BANK12

    None.

Critical Paths under _main in BANK13

    None.

Critical Paths under _Interrupt_Manager in BANK13

    None.

Critical Paths under _main in BANK14

    None.

Critical Paths under _Interrupt_Manager in BANK14

    None.

Critical Paths under _main in BANK15

    None.

Critical Paths under _Interrupt_Manager in BANK15

    None.

Call Graph Tables:

 ---------------------------------------------------------------------------------
 (Depth) Function   	        Calls       Base Space   Used Autos Params    Refs
 ---------------------------------------------------------------------------------
 (0) _main                                                 0     0      0  775604
                 _SelectAdminOrGuest
                        _SetPassword
                            _Welcome
             _application_initialize
 ---------------------------------------------------------------------------------
 (1) _application_initialize                               1     1      0   28247
                _ecu_layer_intialize
 ---------------------------------------------------------------------------------
 (2) _ecu_layer_intialize                                  1     1      0   28246
                   _keypad_intialize
                 _lcd_4bit_intialize
                     _led_initialize
 ---------------------------------------------------------------------------------
 (3) _led_initialize                                       4     3      1    4353
                                             11 COMRAM     3     2      1
                 _gpio_pin_intialize
 ---------------------------------------------------------------------------------
 (3) _lcd_4bit_intialize                                   4     3      1   19131
                                             14 COMRAM     4     3      1
                 _gpio_pin_intialize
              _lcd_4bit_send_command
 ---------------------------------------------------------------------------------
 (3) _keypad_intialize                                     4     3      1    4761
                                             11 COMRAM     3     2      1
       _gpio_pin_direction_intialize
                 _gpio_pin_intialize
 ---------------------------------------------------------------------------------
 (4) _gpio_pin_intialize                                   3     2      1    3988
                                              8 COMRAM     3     2      1
       _gpio_pin_direction_intialize
               _gpio_pin_write_logic
 ---------------------------------------------------------------------------------
 (5) _gpio_pin_direction_intialize                         7     6      1     483
                                              0 COMRAM     7     6      1
 ---------------------------------------------------------------------------------
 (1) _Welcome                                              0     0      0   53816
                           _delay_ms
              _lcd_4bit_send_command
           _lcd_4bit_send_string_pos
 ---------------------------------------------------------------------------------
 (1) _SetPassword                                          1     1      0  232720
                                             27 COMRAM     1     1      0
                      _AdminPassword
                   _EEPROM_Data_Read
                      _GuestPassword
                           _delay_ms
              _lcd_4bit_send_command
           _lcd_4bit_send_string_pos
 ---------------------------------------------------------------------------------
 (2) _GuestPassword                                        2     2      0   89152
                                             25 COMRAM     2     2      0
                  _EEPROM_Data_Write
                           _delay_ms
                   _keypad_get_value
        _lcd_4bit_send_char_data_pos
              _lcd_4bit_send_command
           _lcd_4bit_send_string_pos
 ---------------------------------------------------------------------------------
 (2) _AdminPassword                                        2     2      0   89152
                                             25 COMRAM     2     2      0
                  _EEPROM_Data_Write
                           _delay_ms
                   _keypad_get_value
        _lcd_4bit_send_char_data_pos
              _lcd_4bit_send_command
           _lcd_4bit_send_string_pos
 ---------------------------------------------------------------------------------
 (3) _EEPROM_Data_Write                                    5     2      3     400
                                              0 COMRAM     4     1      3
 ---------------------------------------------------------------------------------
 (1) _SelectAdminOrGuest                                   3     3      0  460821
                                             38 COMRAM     3     3      0
                         _AdminLogin
                         _GuestLogin
                           _delay_ms
                   _keypad_get_value
              _lcd_4bit_send_command
           _lcd_4bit_send_string_pos
 ---------------------------------------------------------------------------------
 (2) _GuestLogin                                          13    13      0  201321
                                             25 COMRAM    13    13      0
                   _EEPROM_Data_Read
                       _GuestControl
                      _StringCompare
                     _SystemShutDown
                           _delay_ms
                   _keypad_get_value
        _lcd_4bit_send_char_data_pos
              _lcd_4bit_send_command
           _lcd_4bit_send_string_pos
 ---------------------------------------------------------------------------------
 (3) _GuestControl                                         0     0      0   55552
              _lcd_4bit_send_command
           _lcd_4bit_send_string_pos
                        _led_turn_on
 ---------------------------------------------------------------------------------
 (2) _AdminLogin                                          13    13      0  201321
                                             25 COMRAM    13    13      0
                       _AdminControl
                   _EEPROM_Data_Read
                      _StringCompare
                     _SystemShutDown
                           _delay_ms
                   _keypad_get_value
        _lcd_4bit_send_char_data_pos
              _lcd_4bit_send_command
           _lcd_4bit_send_string_pos
 ---------------------------------------------------------------------------------
 (3) _lcd_4bit_send_char_data_pos                          5     1      4   30438
                                             20 COMRAM     5     1      4
            _lcd_4bit_send_char_data
                   _lcd_4bit_set_pos
 ---------------------------------------------------------------------------------
 (3) _keypad_get_value                                     9     7      2    4272
                                              8 COMRAM     8     6      2
                _gpio_pin_read_logic
               _gpio_pin_write_logic
 ---------------------------------------------------------------------------------
 (4) _gpio_pin_read_logic                                  7     5      2     308
                                              0 COMRAM     7     5      2
 ---------------------------------------------------------------------------------
 (2) _delay_ms                                            12     8      4    1384
                                              0 COMRAM    12     8      4
 ---------------------------------------------------------------------------------
 (3) _SystemShutDown                                       0     0      0   55552
              _lcd_4bit_send_command
           _lcd_4bit_send_string_pos
                        _led_turn_on
 ---------------------------------------------------------------------------------
 (3) _StringCompare                                        6     3      3     590
                                              0 COMRAM     6     3      3
 ---------------------------------------------------------------------------------
 (2) _EEPROM_Data_Read                                     4     1      3     553
                                              0 COMRAM     3     0      3
 ---------------------------------------------------------------------------------
 (3) _AdminControl                                         0     0      0   55552
              _lcd_4bit_send_command
           _lcd_4bit_send_string_pos
                        _led_turn_on
 ---------------------------------------------------------------------------------
 (4) _led_turn_on                                          4     3      1    3120
                                              8 COMRAM     3     2      1
               _gpio_pin_write_logic
 ---------------------------------------------------------------------------------
 (2) _lcd_4bit_send_string_pos                             6     1      5   37740
                                             20 COMRAM     5     0      5
            _lcd_4bit_send_char_data
                   _lcd_4bit_set_pos
 ---------------------------------------------------------------------------------
 (3) _lcd_4bit_set_pos                                     6     3      3   15284
                                             14 COMRAM     6     3      3
              _lcd_4bit_send_command
 ---------------------------------------------------------------------------------
 (4) _lcd_4bit_send_command                                3     1      2   14692
                                             11 COMRAM     3     1      2
               _gpio_pin_write_logic
                      _lcd_send_4bit
                    _lcd_send_enable
 ---------------------------------------------------------------------------------
 (3) _lcd_4bit_send_char_data                              3     1      2   10436
                                             11 COMRAM     3     1      2
               _gpio_pin_write_logic
                      _lcd_send_4bit
                    _lcd_send_enable
 ---------------------------------------------------------------------------------
 (5) _lcd_send_enable                                      2     1      1    3288
                                              8 COMRAM     2     1      1
               _gpio_pin_write_logic
 ---------------------------------------------------------------------------------
 (5) _lcd_send_4bit                                        3     1      2    3574
                                              8 COMRAM     3     1      2
               _gpio_pin_write_logic
 ---------------------------------------------------------------------------------
 (5) _gpio_pin_write_logic                                 8     6      2    2763
                                              0 COMRAM     8     6      2
 ---------------------------------------------------------------------------------
 Estimated maximum stack depth 5
 ---------------------------------------------------------------------------------
 (Depth) Function   	        Calls       Base Space   Used Autos Params    Refs
 ---------------------------------------------------------------------------------
 (9) _Interrupt_Manager                                    0     0      0       0
                      _EUSART_RX_ISR
                      _EUSART_TX_ISR
              _MSSP_I2C_BUS_Colision
                       _MSSP_I2C_ISR
 ---------------------------------------------------------------------------------
 (10) _MSSP_I2C_ISR                                        0     0      0       0
 ---------------------------------------------------------------------------------
 (10) _MSSP_I2C_BUS_Colision                               0     0      0       0
 ---------------------------------------------------------------------------------
 (10) _EUSART_TX_ISR                                       0     0      0       0
 ---------------------------------------------------------------------------------
 (10) _EUSART_RX_ISR                                       0     0      0       0
 ---------------------------------------------------------------------------------
 Estimated maximum stack depth 10
 ---------------------------------------------------------------------------------

 Call Graph Graphs:

 _main (ROOT)
   _SelectAdminOrGuest
     _AdminLogin
       _AdminControl
         _lcd_4bit_send_command
           _gpio_pin_write_logic
           _lcd_send_4bit
             _gpio_pin_write_logic
           _lcd_send_enable
             _gpio_pin_write_logic
         _lcd_4bit_send_string_pos
           _lcd_4bit_send_char_data
             _gpio_pin_write_logic
             _lcd_send_4bit
             _lcd_send_enable
           _lcd_4bit_set_pos
             _lcd_4bit_send_command
         _led_turn_on
           _gpio_pin_write_logic
       _EEPROM_Data_Read
       _StringCompare
       _SystemShutDown
         _lcd_4bit_send_command
         _lcd_4bit_send_string_pos
         _led_turn_on
       _delay_ms
       _keypad_get_value
         _gpio_pin_read_logic
         _gpio_pin_write_logic
       _lcd_4bit_send_char_data_pos
         _lcd_4bit_send_char_data
         _lcd_4bit_set_pos
       _lcd_4bit_send_command
       _lcd_4bit_send_string_pos
     _GuestLogin
       _EEPROM_Data_Read
       _GuestControl
         _lcd_4bit_send_command
         _lcd_4bit_send_string_pos
         _led_turn_on
       _StringCompare
       _SystemShutDown
       _delay_ms
       _keypad_get_value
       _lcd_4bit_send_char_data_pos
       _lcd_4bit_send_command
       _lcd_4bit_send_string_pos
     _delay_ms
     _keypad_get_value
     _lcd_4bit_send_command
     _lcd_4bit_send_string_pos
   _SetPassword
     _AdminPassword
       _EEPROM_Data_Write
       _delay_ms
       _keypad_get_value
       _lcd_4bit_send_char_data_pos
       _lcd_4bit_send_command
       _lcd_4bit_send_string_pos
     _EEPROM_Data_Read
     _GuestPassword
       _EEPROM_Data_Write
       _delay_ms
       _keypad_get_value
       _lcd_4bit_send_char_data_pos
       _lcd_4bit_send_command
       _lcd_4bit_send_string_pos
     _delay_ms
     _lcd_4bit_send_command
     _lcd_4bit_send_string_pos
   _Welcome
     _delay_ms
     _lcd_4bit_send_command
     _lcd_4bit_send_string_pos
   _application_initialize
     _ecu_layer_intialize
       _keypad_intialize
         _gpio_pin_direction_intialize
         _gpio_pin_intialize
           _gpio_pin_direction_intialize
           _gpio_pin_write_logic
       _lcd_4bit_intialize
         _gpio_pin_intialize
         _lcd_4bit_send_command
       _led_initialize
         _gpio_pin_intialize

 _Interrupt_Manager (ROOT)
   _EUSART_RX_ISR
   _EUSART_TX_ISR
   _MSSP_I2C_BUS_Colision
   _MSSP_I2C_ISR

 Address spaces:
Name               Size   Autos  Total    Cost      Usage
BIGRAM             F7F      0       0      47        0.0%
EEDATA             400      0       0       0        0.0%
BITBANK14          100      0       0      33        0.0%
BANK14             100      0       0      34        0.0%
BITBANK13          100      0       0      31        0.0%
BANK13             100      0       0      32        0.0%
BITBANK12          100      0       0      29        0.0%
BANK12             100      0       0      30        0.0%
BITBANK11          100      0       0      27        0.0%
BANK11             100      0       0      28        0.0%
BITBANK10          100      0       0      25        0.0%
BANK10             100      0       0      26        0.0%
BITBANK9           100      0       0      23        0.0%
BANK9              100      0       0      24        0.0%
BITBANK8           100      0       0      21        0.0%
BANK8              100      0       0      22        0.0%
BITBANK7           100      0       0      18        0.0%
BANK7              100      0       0      19        0.0%
BITBANK6           100      0       0      16        0.0%
BANK6              100      0       0      17        0.0%
BITBANK5           100      0       0      14        0.0%
BANK5              100      0       0      15        0.0%
BITBANK4           100      0       0      12        0.0%
BANK4              100      0       0      13        0.0%
BITBANK3           100      0       0      10        0.0%
BANK3              100      0       0      11        0.0%
BITBANK2           100      0       0       8        0.0%
BANK2              100      0       0       9        0.0%
BITBANK1           100      0       0       6        0.0%
BANK1              100      0       0       7        0.0%
BITBANK15           80      0       0      35        0.0%
BANK15              80      0       0      36        0.0%
BITBANK0            80      0       0       4        0.0%
BANK0               80      0      12       5       14.1%
BITCOMRAM           7E      0       0       0        0.0%
COMRAM              7E     29      7B       1       97.6%
BITBIGSFRhhhlhh     1A      0       0      38        0.0%
BITBIGSFRhhhh        D      0       0      37        0.0%
BITBIGSFRllhhll      6      0       0      44        0.0%
BITBIGSFRhhhllh      5      0       0      39        0.0%
BITBIGSFRllhhll      4      0       0      41        0.0%
BITBIGSFRllhhll      4      0       0      42        0.0%
BITBIGSFRlllh        4      0       0      45        0.0%
BITBIGSFRlllll       4      0       0      46        0.0%
BITBIGSFRllhhll      1      0       0      40        0.0%
BITBIGSFRllhhll      1      0       0      43        0.0%
BIGSFR               0      0       0     200        0.0%
BITSFR               0      0       0     200        0.0%
SFR                  0      0       0     200        0.0%
STACK                0      0       0       2        0.0%
NULL                 0      0       0       0        0.0%
ABS                  0      0      8D      20        0.0%
DATA                 0      0      8D       3        0.0%
CODE                 0      0       0       0        0.0%


Microchip Technology PIC18 Macro Assembler V2.45 build 20230818022343 
Symbol Table                                                                                   Mon Feb 12 19:08:41 2024

                            ?_lcd_send_4bit 003A                                 _SSPSTATbits 0FC7  
                                        l33 0B58                                          l19 1038  
                       ??_Interrupt_Manager 0032                                         l113 11AC  
                                       l203 0F0E                                         l123 1458  
                                       l108 0C36                                         l118 1204  
                                       l139 0FD8                                         l164 12FC  
                                       l244 1154                                         l236 14E8  
                                       l510 1402                                         l167 150E  
                                       l183 1098                                         l512 1410  
                                       l192 0F24                                         l513 141C  
                                       l196 0F74                                         l518 148C  
                                       l606 10F6                                         l199 0EBA  
                                       l566 0966                                         l592 0DA0  
                                       l585 0A76                                         _PR2 0FCB  
                     _RB4_Call_Back_fun_LOW 001B                       _RB7_Call_Back_fun_LOW 000F  
                       led_initialize@F3059 0031                                         prod 0FF3  
                                _AdminLogin 02FA                                         wreg 0FE8  
                              ?_led_turn_on 003A                          _INT0_Call_Back_fun 0023  
                                      l1500 0752                                        l1505 0840  
                                      l1513 0710                                        l1508 0622  
                                      l1526 0CFC                                        l1543 05CC  
                                      l5000 0D9E                                        l1560 02F8  
                                      l5010 0F9E                                        l1539 05E0  
                                      l5012 0FB6                                        l5004 0F76  
                                      l5020 0EBE                                        l1580 138C  
                                      l5100 0B46                                        l1564 02E4  
                                      l1492 12AC                                        l1581 138C  
                                      l5014 0FBA                                        l5006 0F86  
                                      l5022 0EF0                                        l1574 13D8  
                                      l5102 0B48                                        l1590 1342  
                                      l5030 0FDA                                        l5110 0B86  
                                      l5008 0F8A                                        l5024 0EF2  
                                      l5016 0EA6                                        l5200 13F4  
                                      l5040 0FFA                                        l5032 0FF2  
                                      l5120 0B98                                        l5104 0B5A  
                                      l1497 0EA4                                        l1489 1560  
                                      l5026 0F02                                        l5018 0EB6  
                                      l5210 145A                                        l5202 13F6  
                                      l5042 1004                                        l5034 0FF6  
                                      l5130 0BE2                                        l5122 0BA8  
                                      l5106 0B6E                                        l1579 1348  
                                      l5220 147A                                        l5212 146A  
                                      l5060 0A98                                        l1588 12FE  
                                      l5204 13F8                                        l5052 101A  
                                      l5044 1006                                        l5140 0C1E  
                                      l5132 0BEE                                        l5124 0BB6  
                                      l5116 0B8A                                        l5108 0B72  
                                      l5300 14C8                                        l1597 148E  
                                      l1589 1342                                        l5230 148C  
                                      l5222 147C                                        l5214 146E  
                                      l1598 14BA                                        l5070 0AB0  
                                      l5062 0AA8                                        l5150 1436  
                                      l5206 13FC                                        l5310 0712  
                                      l5054 1026                                        l5046 1016  
                                      l5142 0C2A                                        l5134 0BFA  
                                      l5126 0BC2                                        l5118 0B96  
                                      l5302 14D0                                        l1599 14BA  
                                      l5224 147E                                        l5216 1474  
                                      l5080 0AC4                                        l5064 0AAC  
                                      l5152 1456                                        l5400 033A  
                                      l5208 1400                                        l5312 071E  
                                      l5056 1028                                        l5136 0C06  
                                      l5128 0BDC                                        l5160 0F28  
                                      l5304 14D8                                        l5226 1480  
                                      l5218 1478                                        l5234 1392  
                                      l5170 10F8                                        l5090 0AE6  
                                      l5082 0AD4                                        l5058 0A78  
                                      l5146 141E                                        l5410 0372  
                                      l5402 0352                                        l5330 07A0  
                                      l5322 0754                                        l5314 0736  
                                      l5138 0C12                                        l5162 0F5A  
                                      l5306 14E0                                        l5260 1354  
                                      l5228 1482                                        l5244 13C2  
                                      l5236 139A                                        l5252 148E  
                                      l5180 1110                                        l5172 1104  
                                      l5092 0AF6                                        l5084 0AE2  
                                      l5076 0AB4                                        l5148 142E  
                                      l5420 03F6                                        l5412 03BA  
                                      l5404 036E                                        l5500 0046  
                                      l5340 07FC                                        l5332 07B4  
                                      l5324 076E                                        l5316 074E  
                                      l5308 0712                                        l5164 0F5C  
                                      l5156 0F10                                        l5262 136C  
                                      l5238 13BC                                        l5246 13C4  
                                      l5254 149A                                        l5182 1126  
                                      l5094 0B06                                        l5078 0AC2  
                                      l5430 0432                                        l5422 0406  
                                      l5414 03BC                                        l5502 0052  
                                      l5190 13E2                                        l5342 0814  
                                      l5334 07DE                                        l5326 077A  
                                      l5350 05EE                                        l5166 0F6C  
                                      l5158 0F20                                        l5248 13D6  
                                      l5256 14B2                                        l5184 112A  
                                      l5096 0B34                                        l5440 047A  
                                      l5432 0446                                        l5416 03D0  
                                      l5264 12FE                                        l5520 0102  
                                      l5512 008A                                        l5504 006A  
                                      l5192 13E8                                        l5344 082C  
                                      l5336 07E0                                        l5328 078A  
                                      l5360 0624                                        l5352 0606  
                                      l5258 1348                                        l5178 110C  
                                      l5098 0B36                                        l5442 048C  
                                      l5434 045C                                        l5418 03EA  
                                      l5266 130A                                        l5530 0134  
                                      l5522 010E                                        l5514 00D2  
                                      l5506 0086                                        l5194 13EC  
                                      l5186 13DA                                        l5338 07F0  
                                      l5370 0684                                        l5362 063E  
                                      l5354 061E                                        l5346 05E2  
                                      l4900 14FE                                        l5460 053E  
                                      l5444 049C                                        l5452 04D8  
                                      l5436 0468                                        l5428 041C  
                                      l5268 1322                                        l5540 0182  
                                      l5532 014A                                        l5524 011E  
                                      l5516 00D4                                        l5196 13F0  
                                      l5188 13DA                                        l5380 06E4  
                                      l5372 06AE                                        l5364 064A  
                                      l5348 05E2                                        l4910 12BE  
                                      l4902 150C                                        l5470 056E  
                                      l5462 0556                                        l5454 04E4  
                                      l5446 04A8                                        l5438 046A  
                                      l5550 01D8                                        l5542 0192  
                                      l5534 015E                                        l5518 00E8  
                                      l5198 13F2                                        l5382 06FC  
                                      l5374 06B0                                        l5366 065A  
                                      l4912 12D0                                        l4920 1166  
                                      l5480 05BC                                        l5472 0580  
                                      l5464 0558                                        l5456 04FC  
                                      l5448 04C0                                        l5392 0306  
                                      l5384 02FA                                        l5560 0242  
                                      l5544 01A4                                        l5536 0174  
                                      l5376 06C0                                        l5368 0670  
                                      l5296 14C0                                        l4914 12E4  
                                      l4906 12AE                                        l4922 116E  
                                      l5474 0584                                        l5466 0568  
                                      l5458 052A                                        l5482 05CC  
                                      l5394 031C                                        l5386 02FA  
                                      l5570 0284                                        l5562 0256  
                                      l5546 01B4                                        l5554 01F0  
                                      l5538 0180                                        l5378 06CC  
                                      l5650 1268                                        l4930 0856  
                                      l5298 14C0                                        l4908 12AE  
                                      l4924 11AA                                        l5476 0590  
                                      l5468 056C                                        l5484 05DC  
                                      l5396 031E                                        l5580 02C0  
                                      l5572 0286                                        l5564 026E  
                                      l5556 01FC                                        l5548 01C0  
                                      l5660 0E3C                                        l5652 1280  
                                      l4940 0924                                        l4932 0876  
                                      l5644 155C                                        l4950 11AE  
                                      l4918 1156                                        l5478 05A8  
                                      l5398 032E                                        l5582 02D4  
                                      l5574 0298                                        l5566 0270  
                                      l5558 0214                                        l5494 001E  
                                      l5486 0012                                        l5670 0E9C  
                                      l5662 0E4C                                        l5654 1298  
                                      l4934 087E                                        l4942 0964  
                                      l5646 155C                                        l5910 153E  
                                      l4880 09FA                                        l4872 0968  
                                      l4952 11BE                                        l4960 103A  
                                      l5576 029C                                        l5568 0280  
                                      l5584 02E4                                        l5496 0034  
                                      l5488 0012                                        l5680 0C5E  
                                      l5672 0EA0                                        l5664 0E58  
                                      l5656 0E28                                        l5648 125C  
                                      l4936 08D4                                        l4928 0842  
                                      l5904 1532                                        l4874 097C  
                                      l4954 11C6                                        l4970 1096  
                                      l4962 103E                                        l5578 02A8  
                                      l5586 02F4                                        l5498 0036  
                                      l5930 0CE6                                        l5690 0CC2  
                                      l5682 0C76                                        l5674 0C38  
                                      l5666 0E70                                        l5658 0E2C  
                                      l5906 1536                                        l4884 0A4A  
                                      l4876 099C                                        l4956 1202  
                                      l5932 1080                                        l4964 1044  
                                      l5692 0CCA                                        l5684 0C8E  
                                      l5676 0C3A                                        l5668 0E88  
                                      l4980 10AE                                        l5908 153A  
                                      l5934 0A5E                                        l4878 09A4  
                                      l4886 0A74                                        l4894 14EA  
                                      l4966 1058                                        l4990 0CFE  
                                      l5694 0CD2                                        l5686 0C9A  
                                      l5678 0C46                                        l4982 10CE  
                                      l4896 14EA                                        l4968 106C  
                                      l4992 0D12                                        l5688 0CAC  
                                      l5928 094E                                        l4984 10D6  
                                      l4898 14F6                                        l4994 0D22  
                                      l4986 10F4                                        l4978 109A  
                                      l4996 0D42                                        l4998 0D4A  
                                      STR_1 FFF9                                        STR_4 FEFE  
                                      STR_5 FFF4                                        STR_6 FF20  
                                      STR_7 FFEF                                        STR_8 FF30  
                                      STR_9 FF77                            ?_lcd_send_enable 003A  
                                      u3000 10AE                                        u3001 10AA  
                                      u3010 10CE                                        u3011 10CA  
                                      u3020 0D12                                        u3100 0FF2  
                                      u3021 0D0E                                        u3101 0FEE  
                                      _LATA 0F89                                        u3030 0D22  
                                      u3110 1016                                        _LATB 0F8A  
                                      u3031 0D1E                                        u3111 1012  
                                      _LATC 0F8B                                        u3040 0D42  
                                      u3120 1038                                        u3200 0BA8  
                                      _LATD 0F8C                                        u3041 0D3E  
                                      u3121 1034                                        u3201 0BA4  
                                      _LATE 0F8D                                        u3130 0A98  
                                      u3210 142E                                        u3131 0A94  
                                      u3211 142A                                        u3060 0F86  
                                      u3300 13D6                                        u3140 0AA8  
                                      u3220 0F20                                        u3061 0F82  
                                      u3301 13D2                                        u3141 0AA4  
                                      u3221 0F1C                                        u3070 0FD8  
                                      u3054 0D92                                        u3150 0AD4  
                                      u3071 0FD4                                        u3055 0D8E  
                                      u3151 0AD0                                        u3080 0EB6  
                                      u3240 1126                                        u3160 0B06  
                                      u3400 0418                                        u3081 0EB2  
                                      u3241 1122                                        u3161 0B02  
                                      u3401 0414                                        u3250 1154  
                                      u3170 0B46                                        u3410 047A  
                                      u3251 1150                                        u3171 0B42  
                                      u3411 0476                                        u3235 0F6A  
                                      u3180 0B58                                        u3420 049C  
                                      u3500 01B4                                        u3260 1410  
                                      u3340 078A                                        u3181 0B54  
                                      u3421 0498                                        u3501 01B0  
                                      u3261 140C                                        u3341 0786  
                                      u3237 0F6C                                        u3430 0568  
                                      u3510 0280                                        u3350 07F0  
                                      u3190 0B6E                                        u3095 0F00  
                                      u3431 0564                                        u3511 027C  
                                      u3351 07EC                                        u3191 0B6A  
                                      u3280 146A                                        u3440 0580  
                                      u3520 0298                                        u3360 065A  
                                      u3600 0E4C                                        u3097 0F02  
                                      u3281 1466                                        u3441 057C  
                                      u3521 0294                                        u3361 0656  
                                      u3601 0E48                                        u3290 13BC  
                                      u3450 05DC                                        u3530 02F4  
                                      u3610 0CAC                                        u3370 06C0  
                                      u3291 13B8                                        u3451 05D8  
                                      u3531 02F0                                        u3611 0CA8  
                                      u3275 141A                                        u3371 06BC  
                                      u3380 032E                                        u3460 0046  
                                      u3620 0CBE                                        u3276 141C  
                                      u3381 032A                                        u3461 0042  
                                      u3621 0CBA                                        u3390 0406  
                                      u3470 011E                                        u3391 0402  
                                      u3471 011A                                        u2904 09C2  
                                      u2920 1166                                        u3480 0130  
                                      u2905 09BE                                        u2921 1162  
                                      u3481 012C                                        u2914 0A18  
                                      u3490 0192                                        u2930 0856  
                                      u2915 0A14                                        u3491 018E  
                                      u2931 0852                                        u2940 0876  
                                      u2941 0872                                        u3807 0BDE  
                                      u2880 097C                                        u2881 0978  
                                      u3817 14F8                                        u2890 099C  
                                      u2970 093A                                        u2954 089C  
                                      u2891 0998                                        u2971 0934  
                                      u2955 0898                                        u2980 093C  
                                      u2964 08F2                                        u2965 08EE  
                                      u2990 11BE                                        u2991 11BA  
                                      u3787 0BAE                                        u3797 0BC8  
                                      _TMR2 0FCC                          GuestLogin@password 004B  
                 __end_of_Interrupt_Manager 0E28              gpio_pin_read_logic@_pin_config 0032  
                                      _main 1532                                        fsr1h 0FE2  
                    _RB4_Call_Back_fun_HIGH 001D                                        fsr2h 0FDA  
                                      indf1 0FE7                                        indf2 0FDF  
                                      fsr1l 0FE1                                        fsr2l 0FD9  
                                      btemp 007C                      __end_of_led_initialize 0F76  
                    _RB7_Call_Back_fun_HIGH 0011           lcd_4bit_send_char_data_pos@column 0048  
                                      prodl 0FF3                                        start 000E  
                        GuestLogin@tryAgain 0054           lcd_4bit_send_char_data_pos@status 004A  
                              ___param_bank 0000                       _lcd_4bit_send_command 1156  
              lcd_4bit_send_string_pos@_lcd 0046                        _gpio_pin_write_logic 0968  
            lcd_4bit_send_string_pos@column 0048                             __end_of_Welcome 12AE  
                             _EUSART_RX_ISR 156E                               _EUSART_TX_ISR 156A  
                                     ?_main 0032                    ??_application_initialize 0044  
                                     _EEADR 0FA9                                       STR_10 FF34  
                                     STR_11 FFBF                                       STR_20 FF8F  
                                     STR_12 FF3F                                       STR_21 FF7D  
                                     STR_13 FF83                                       STR_30 FF9B  
                                     STR_14 FF43                                       STR_22 FFFC  
                                     STR_15 FFBF                                       STR_31 FF7D  
                                     STR_23 FF5C                                       STR_32 FFFC  
                                     STR_16 FFDF                                       STR_24 FFCA  
                                     STR_40 FFB3                                       STR_41 FF6A  
                                     STR_33 FF5C                                       STR_25 FFD5  
                                     STR_17 FF0F                                       STR_34 FFCA  
                                     STR_26 FFE8                                       STR_18 FF8F  
                                     STR_42 FEED                                       STR_19 FF7D  
                                     STR_35 FFD5                                       STR_27 FF4E  
                                     STR_36 FFE8                                       STR_28 FF9B  
                                     STR_29 FF7D                                       STR_37 FF4E  
                                     STR_38 FFA7                                       STR_39 FF6A  
                                     _LCD_1 0073                                       i2l773 1568  
                                     i2l768 1564                                       _RCREG 0FAE  
                                     _TMR0H 0FD7                                       _TMR1H 0FCF  
                                     _TMR0L 0FD6                                       _TMR1L 0FCE  
                                     _TMR3H 0FB3                                       _TMR3L 0FB2  
                                     _SPBRG 0FAF                                       _PORTA 0F80  
                                     _PORTB 0F81                                       _PORTC 0F82  
                                     _PORTD 0F83                                       _PORTE 0F84  
                                     _TRISA 0F92                                       _TRISB 0F93  
                                     _TRISC 0F94                                       _TRISD 0F95  
                                     _TRISE 0F96                                       _TXREG 0FAD  
                                     _Alarm 0079                    __end_of_keypad_get_value 0B5A  
                             _StringCompare 1392                    __end_of_EEPROM_Data_Read 148E  
                                     tablat 0FF5                                _AdminControl 1348  
                          ??_SystemShutDown 004B                                       ttemp5 007D  
                                     ttemp6 0080                                       ttemp7 0084  
                                     status 0FD8                                       wtemp8 007D  
                           ?_led_initialize 003D                               ?_GuestControl 0032  
         keypad_get_value@l_columns_counter 0041                    __end_of_keypad_intialize 103A  
                           ??_lcd_send_4bit 003C                         StringCompare@Length 0034  
                           __initialization 1206                                __end_of_main 154A  
                     ?_gpio_pin_write_logic 0032                     keypad_get_value@c_logic 003E  
                   keypad_get_value@_keypad 003A                              ?_EUSART_RX_ISR 0032  
                            ?_EUSART_TX_ISR 0032                    gpio_pin_read_logic@logic 0033  
                                _GuestLogin 0012                                      ??_main 005B  
                 lcd_4bit_send_command@_lcd 003D                               __activetblptr 0003  
                    lcd_4bit_intialize@_lcd 0040                               ??_SetPassword 004D  
                          led_turn_on@F3064 0030                                 ?_AdminLogin 0032  
                            ?_StringCompare 0032                                 GuestLogin@i 0055  
                       EEPROM_Data_Read@Add 0032                       _MSSP_I2C_BUS_Colision 1566  
                                    _ADRESH 0FC4                                      _EEADRH 0FAA  
                                    _ADRESL 0FC3                                      _EEDATA 0FA8  
                                    _CCPR1H 0FBF                                      _CCPR2H 0FBC  
                                    _CCPR1L 0FBE                                      _CCPR2L 0FBB  
                                    _EECON2 0FA7              keypad_intialize@l_rows_counter 003E  
                                    i2l1050 0E04                                      i2l1053 0E24  
                                    i2l1046 0DC4                                      i2l1048 0DE4  
                                    i2l1421 156E                                      i2l3110 1562  
                                    i2l1426 156C                                      i2l3116 1566  
                                    i2l3160 156A                                      i2l3166 156E  
                                    i2l4310 0DE0                                      i2l4302 0DA4  
                                    i2l4312 0DF2                                      i2l4304 0DB2  
                                    i2l4314 0E00                                      i2l4306 0DC0  
                                    i2l4316 0E12                                      i2l4308 0DD2  
                                    i2l4318 0E20                              _Timer0_Preload 000D  
                                    _SPBRGH 0FB0                                      _SSPADD 0FC8  
                            ??_GuestControl 004B                                      _SSPBUF 0FC9  
                 keypad_get_value@l_counter 003F                              _Timer1_Preload 000B  
                _EUSART_RX_InterruptHandler 0005                               _tris_register 0065  
                            _Timer2_Preload 002D            __end_of_lcd_4bit_send_string_pos 0FDA  
                          __end_of_delay_ms 1156                              _Timer3_Preload 0009  
                    ?_lcd_4bit_send_command 003D                               _GuestPassword 05E2  
                                 ??_Welcome 004B                            SetPassword@value 004D  
_MSSP_I2C_Recieve_OverFlow_InterruptHandler 0027                                      clear_0 124C  
                     led_initialize@pin_obj 003F                                      isa$std 0001  
   gpio_pin_direction_intialize@_pin_config 0032                                __pdataCOMRAM 005B  
                              __mediumconst FEDC                                      tblptrh 0FF7  
                                    tblptrl 0FF6                                      tblptru 0FF8  
                          GuestLogin@i_3478 0056                         __end_of_SetPassword 0EA6  
                             _AdminPassword 0712                                  __accesstop 0080  
                   __end_of__initialization 1252                               ___rparam_used 0001  
                        AdminPassword@value 004B                           led_initialize@led 003D  
                            ?_GuestPassword 0032                     _lcd_4bit_send_char_data 11AE  
                    ??_gpio_pin_write_logic 0034                              __pcstackCOMRAM 0032  
                              __pidataBANK0 154A                             ??_EUSART_RX_ISR 0032  
                           ??_EUSART_TX_ISR 0032                                 ?_GuestLogin 0032  
            lcd_4bit_intialize@data_counter 0043                             ??_StringCompare 0035  
                    ?_MSSP_I2C_BUS_Colision 0032                          _INT1_Call_Back_fun 0021  
              ?_lcd_4bit_send_char_data_pos 0046                              ?_AdminPassword 0032  
                    _application_initialize 155C                        EEPROM_Data_Read@Data 0034  
                         led_turn_off@F3069 002F                              GuestPassword@i 004C  
         keypad_intialize@l_columns_counter 003F                         lcd_4bit_set_pos@row 0041  
                      __end_of_GuestControl 1348                                 _SetPassword 0E28  
                     _RB5_Call_Back_fun_LOW 0017                   ?_lcd_4bit_send_string_pos 0046  
                             ?_MSSP_I2C_ISR 0032                                   ?_delay_ms 0032  
                      led_turn_toggle@F3074 002E                           ?_keypad_get_value 003A  
                         ?_EEPROM_Data_Read 0032                            ??_led_initialize 003E  
                                _btn_keypad FEDD                          ??_keypad_get_value 003C  
        gpio_pin_direction_intialize@status 0038                          ??_EEPROM_Data_Read 0035  
                 ??_lcd_4bit_send_char_data 003F                      _RB6_Call_Back_fun_HIGH 0015  
                           ??_GuestPassword 004B                                     __Hparam 0000  
                                   __Lparam 0000                           ?_keypad_intialize 003D  
                       _ecu_layer_intialize 14C0                                     _Welcome 125C  
                      EEPROM_Data_Write@Add 0032                   _MSSP_I2C_InterruptHandler 0029  
                        ??_keypad_intialize 003E                         _gpio_pin_read_logic 0CFE  
                __end_of_gpio_pin_intialize 10F8                                     __pcinit 1206  
                                   __ramtop 1000                                     __ptext0 1532  
                                   __ptext1 155C                                     __ptext2 14C0  
                                   __ptext3 0F10                                     __ptext4 0B5A  
                                   __ptext5 0FDA                                     __ptext6 109A  
                                   __ptext7 0842                                     __ptext8 125C  
                                   __ptext9 0E28                                   _T0CONbits 0FD5  
                                 _T1CONbits 0FCD                              ??_MSSP_I2C_ISR 0032  
                                 _T2CONbits 0FCA                                   _T3CONbits 0FB1  
                              ??_AdminLogin 004B                        ?_ecu_layer_intialize 0032  
                                ??_delay_ms 0036                             ??_AdminPassword 004B  
                         lcd_send_4bit@_lcd 003A                        ?_gpio_pin_read_logic 0032  
                          _lcd_4bit_set_pos 103A                              __pintcode_body 0DA2  
                      end_of_initialization 1252                  __end_of_SelectAdminOrGuest 0CFE  
                                   int_func 0DA2                  __end_of_lcd_4bit_intialize 0C38  
                   ??_lcd_4bit_send_command 003F                                   _RCSTAbits 0FAB  
                     __end_of_lcd_send_4bit 12FE                          __end_of_AdminLogin 05E2  
                                   postdec1 0FE5                                     postdec2 0FDD  
                        GuestPassword@value 004B                                     postinc0 0FEE  
                                   postinc1 0FE6                                     postinc2 0FDE  
                   keypad_intialize@_keypad 003D    EEPROM_Data_Write@Interrupt_Global_Status 0035  
           __end_of_lcd_4bit_send_char_data 1206               gpio_pin_intialize@_pin_config 003A  
                     ??_ecu_layer_intialize 0044        __end_of_gpio_pin_direction_intialize 0968  
              _gpio_pin_direction_intialize 0842                                   _TRISAbits 0F92  
                                 _TRISCbits 0F94                       ??_gpio_pin_read_logic 0034  
           lcd_4bit_send_char_data_pos@_lcd 0046             lcd_4bit_send_char_data_pos@data 0049  
                            AdminPassword@i 004C                                 _CCP1CONbits 0FBD  
                               _CCP2CONbits 0FBA                                   _TXSTAbits 0FAC  
                       AdminLogin@LoginPass 004F                           StringCompare@str1 0032  
                         StringCompare@str2 0033                 lcd_4bit_send_string_pos@row 0047  
               lcd_4bit_send_string_pos@str 0049                       keypad_get_value@value 003B  
        _MSSP_I2C_collision_IntrruptHandler 0025                                 _BAUDCONbits 0FB8  
                              ??_GuestLogin 004B                           ??_lcd_send_enable 003B  
                             __pidataCOMRAM 1510                     ??_MSSP_I2C_BUS_Colision 0032  
                     lcd_send_enable@status 003B          _EUSART_FramingErr_InterruptHandler 0001  
             lcd_4bit_send_char_data@status 003F                         start_initialization 1206  
                             ??_led_turn_on 003B               ?_gpio_pin_direction_intialize 0032  
                              _lat_register 005B                          _INT2_Call_Back_fun 001F  
                   ?_application_initialize 0032                          __end_of_GuestLogin 02FA  
                              _GuestControl 12FE                        __end_of_MSSP_I2C_ISR 1566  
                               __pdataBANK0 0080                       __end_of_EUSART_RX_ISR 1570  
                     __end_of_EUSART_TX_ISR 156E                lcd_4bit_send_command@command 003E  
                              ?_SetPassword 0032                                 __pbssCOMRAM 0001  
                     __end_of_StringCompare 13DA                             GuestLogin@value 0057  
                       lcd_send_enable@_lcd 003A              __end_of_application_initialize 1562  
                  lcd_4bit_intialize@status 0042                               ?_AdminControl 0032  
                       __end_of_led_turn_on 0F10                                    ?_Welcome 0032  
                                 __pintcode 0008                               __pmediumconst FEDC  
           gpio_pin_write_logic@_pin_config 0032                    __end_of_lcd_4bit_set_pos 109A  
                   GuestLogin@ShutDownValue 0053                   gpio_pin_write_logic@logic 0033  
                               AdminLogin@i 0055                       _RB6_Call_Back_fun_LOW 0013  
                  gpio_pin_intialize@status 003C                          _gpio_pin_intialize 109A  
                            ??_AdminControl 004B                        lcd_4bit_set_pos@_lcd 0040  
            ??_gpio_pin_direction_intialize 0033                                    _RB4_Flag 0072  
                                  _LATCbits 0F8B                                    _RB5_Flag 0071  
                                 delay_ms@i 003A                                   delay_ms@j 003C  
                    _RB5_Call_Back_fun_HIGH 0019                                    _RB6_Flag 0070  
                                  _RB7_Flag 006F                         ?_gpio_pin_intialize 003A  
                                  _PIE1bits 0F9D                                    _PIE2bits 0FA0  
                     __end_of_GuestPassword 0712                                    i2u211_40 0DB2  
                                  i2u211_41 0DAE                                    i2u212_40 0DC0  
                                  i2u212_41 0DBC               __end_of_lcd_4bit_send_command 11AE  
                                  i2u213_40 0DD2                                    i2u213_41 0DCE  
                                  i2u214_40 0DE0                                    i2u214_41 0DDC  
                                  i2u215_40 0DF2                                    i2u215_41 0DEE  
                                  i2u216_40 0E00                                    i2u216_41 0DFC  
                                  i2u217_40 0E12                                    i2u217_41 0E0E  
                                  i2u218_40 0E20                                    i2u218_41 0E1C  
                                  _PIR1bits 0F9E                                    _PIR2bits 0FA1  
                        led_turn_on@pin_obj 003C                              _SystemShutDown 148E  
                         _EEPROM_Data_Write 13DA                          _SelectAdminOrGuest 0C38  
                        _lcd_4bit_intialize 0B5A                          ?_EEPROM_Data_Write 0032  
                  _lcd_4bit_send_string_pos 0F76                         lcd_send_4bit@status 003C  
                                _ADCON0bits 0FC2                                  _ADCON1bits 0FC1  
                                _ADCON2bits 0FC0                        ??_gpio_pin_intialize 003B  
                       ?_SelectAdminOrGuest 0032                                    _AdminLed 007B  
            lcd_4bit_send_char_data_pos@row 0047                         ?_lcd_4bit_intialize 0040  
                       ??_EEPROM_Data_Write 0035                                 _led_turn_on 0EA6  
       __end_of_lcd_4bit_send_char_data_pos 145A                 _lcd_4bit_send_char_data_pos 141E  
                     __end_of_AdminPassword 0842                    ?_lcd_4bit_send_char_data 003D  
                                 copy_data0 121A                                   copy_data1 123A  
                                  _GuestLed 007A                        ??_SelectAdminOrGuest 0058  
             ??_lcd_4bit_send_char_data_pos 004A                                  _EECON1bits 0FA6  
                           _lcd_send_enable 14EA                        ??_lcd_4bit_intialize 0041  
                            led_turn_on@led 003A                                    __Hrparam 0000  
                    __end_of_SystemShutDown 14C0                   __end_of_EEPROM_Data_Write 141E  
                                  __Lrparam 0000                       EEPROM_Data_Write@Data 0034  
               __end_of_ecu_layer_intialize 14EA                          __end_of_btn_keypad FEED  
               lcd_4bit_send_command@status 003F                 __end_of_gpio_pin_read_logic 0DA2  
             __end_of_MSSP_I2C_BUS_Colision 156A                                _MSSP_I2C_ISR 1562  
                                  _delay_ms 10F8                                    __ptext10 05E2  
                                  __ptext11 0712                                    __ptext20 10F8  
                                  __ptext12 13DA                                    __ptext21 148E  
                                  __ptext13 0C38                                    __ptext30 14EA  
                                  __ptext22 1392                                    __ptext14 0012  
                                  __ptext31 12AE                                    __ptext23 145A  
                                  __ptext15 12FE                                    __ptext32 0968  
                                  __ptext24 1348                                    __ptext16 02FA  
                                  __ptext25 0EA6                                    __ptext17 141E  
                                  __ptext34 1562                                    __ptext26 0F76  
                                  __ptext18 0A78                                    __ptext35 1566  
                                  __ptext27 103A                                    __ptext19 0CFE  
                                  __ptext36 156A                                    __ptext28 1156  
                                  __ptext37 156E                                    __ptext29 11AE  
                        AdminLogin@password 004B                      lcd_4bit_set_pos@column 0042  
                        AdminLogin@tryAgain 0054                                    _keypad_1 008A  
                    lcd_4bit_set_pos@status 0045                  _EUSART_TX_InterruptHandler 0007  
                           ?_SystemShutDown 0032                   lcd_send_4bit@data_command 003B  
                          _keypad_get_value 0A78                            _EEPROM_Data_Read 145A  
                                  isa$xinst 0000                                    int$flags 007C  
                      __end_of_AdminControl 1392                                 delay_ms@val 0032  
                                _INTCONbits 0FF2                            _keypad_intialize 0FDA  
                 gpio_pin_read_logic@status 0038              keypad_get_value@l_rows_counter 0040  
              __end_of_gpio_pin_write_logic 0A78                     __end_of_lcd_send_enable 1510  
                                  intlevel2 0000                     SelectAdminOrGuest@value 005A  
        _EUSART_OverrunErr_InterruptHandler 0003                            AdminLogin@i_3460 0056  
                             _lcd_send_4bit 12AE                              StringCompare@i 0037  
                         ?_lcd_4bit_set_pos 0040                         GuestLogin@LoginPass 004F  
                        ??_lcd_4bit_set_pos 0043                     AdminLogin@ShutDownValue 0053  
           CCP_CaptureMode_Read_Value@F3124 002B                  gpio_pin_write_logic@status 0039  
                               _SSPCON1bits 0FC6                                 _SSPCON2bits 0FC5  
                             _port_register 0080                             AdminLogin@value 0057  
               lcd_4bit_send_char_data@_lcd 003D                 lcd_4bit_send_char_data@data 003E  
                         _Interrupt_Manager 0008                  ??_lcd_4bit_send_string_pos 004B  
                            _led_initialize 0F10                          ?_Interrupt_Manager 0032  
